;---------------------------------
;   Mod 6022BE Firmware
;   for FX2LP chip (Enhanced 8051)
;
;   Disassembled with Dis51
;
;---------------------------------


CSEG AT 0000h
  0000 020D52		LJMP L0D52

L0003:
  0003 90E682		MOV DPTR, #0E682h
  0006 E0    		MOVX A, @DPTR
  0007 44C0  		ORL A, #0C0h
  0009 F0    		MOVX @DPTR, A
  000A 90E681		MOV DPTR, #0E681h
  000D F0    		MOVX @DPTR, A
  000E 438701		ORL PCON, #1h
  0011 00    		NOP
  0012 00    		NOP
  0013 00    		NOP
  0014 00    		NOP
  0015 00    		NOP
  0016 22    		RET

L0017:
  0017 7400  		MOV A, #0h
  0019 F586  		MOV 86h, A
  001B 90FDA5		MOV DPTR, #0FDA5h
  001E 7C05  		MOV R4, #5h
L0020:
  0020 A3    		INC DPTR
  0021 E582  		MOV A, DPL
  0023 4583  		ORL A, DPH
  0025 70F9  		JNZ L0020
  0027 22    		RET

L0028:
  0028 D3    		SETB C
  0029 22    		RET

L002A:
  002A 32    		RETI

  002B 021196		LJMP L1196

L002E:
  002E 53D8EF		ANL 0D8h, #0EFh
  0031 32    		RETI

L0032:
  0032 32    		RETI

  0033 02002E		LJMP L002E

  0036 00    		DB 000h 
  0037 01    		DB 001h 
  0038 02    		DB 002h 
  0039 02    		DB 002h 
  003A 03    		DB 003h 
  003B 03    		DB 003h 
  003C 04    		DB 004h 
  003D 04    		DB 004h 
  003E 05    		DB 005h 
  003F 05    		DB 005h 
L0040:
  0040 D3    		SETB C
  0041 22    		RET

L0042:
  0042 32    		RETI

  0043 020C00		LJMP L0C00

L0046:
  0046 D3    		SETB C
  0047 22    		RET

L0048:
  0048 D3    		SETB C
  0049 22    		RET

L004A:
  004A 32    		RETI

  004B 020A73		LJMP L0A73

L004E:
  004E D3    		SETB C
  004F 22    		RET

L0050:
  0050 D3    		SETB C
  0051 22    		RET

L0052:
  0052 32    		RETI

  0053 020C00		LJMP L0C00

L0056:
  0056 90E678		MOV DPTR, #0E678h
  0059 E0    		MOVX A, @DPTR
  005A 5410  		ANL A, #10h
  005C FF    		MOV R7, A
  005D C4    		SWAP A
  005E 540F  		ANL A, #0Fh
  0060 4450  		ORL A, #50h
  0062 F519  		MOV 19h, A
  0064 13    		RRC A
  0065 E4    		CLR A
  0066 33    		RLC A
  0067 F51C  		MOV 1Ch, A
  0069 D202  		SETB 2h
  006B 90E6B9		MOV DPTR, #0E6B9h
  006E E0    		MOVX A, @DPTR
  006F 245E  		ADD A, #5Eh
  0071 6050  		JZ L00C3
  0073 24F0  		ADD A, #0F0h
  0075 6030  		JZ L00A7
  0077 24D2  		ADD A, #0D2h
  0079 B40800		CJNE A, #8h, L007C
L007C:
  007C 4003  		JC L0081
  007E 0204D5		LJMP L04D5

L0081:
  0081 90008F		MOV DPTR, #008Fh
  0084 75F003		MOV B, #3h
  0087 A4    		MUL AB
  0088 C583  		XCH A, DPH
  008A 25F0  		ADD A, B
  008C C583  		XCH A, DPH
  008E 73    		JMP @A+DPTR

  008F 02024B		LJMP L024B

  0092 020296		LJMP L0296

  0095 0202DC		LJMP L02DC

  0098 020446		LJMP L0446

  009B 0204D5		LJMP L04D5

  009E 0204D5		LJMP L04D5

  00A1 0204D5		LJMP L04D5

  00A4 020465		LJMP L0465

L00A7:
  00A7 A205  		MOV C, 5h
  00A9 E4    		CLR A
  00AA 33    		RLC A
  00AB 90E740		MOV DPTR, #0E740h
  00AE F0    		MOVX @DPTR, A
  00AF E4    		CLR A
  00B0 90E68A		MOV DPTR, #0E68Ah
  00B3 F0    		MOVX @DPTR, A
  00B4 90E68B		MOV DPTR, #0E68Bh
  00B7 04    		INC A
  00B8 F0    		MOVX @DPTR, A
  00B9 90E6A0		MOV DPTR, #0E6A0h
  00BC E0    		MOVX A, @DPTR
  00BD 4480  		ORL A, #80h
  00BF F0    		MOVX @DPTR, A
  00C0 0204D7		LJMP L04D7

L00C3:
  00C3 90E6BA		MOV DPTR, #0E6BAh
  00C6 E0    		MOVX A, @DPTR
  00C7 752D00		MOV 2Dh, #0h
  00CA F52E  		MOV 2Eh, A
  00CC A3    		INC DPTR
  00CD E0    		MOVX A, @DPTR
  00CE FE    		MOV R6, A
  00CF E4    		CLR A
  00D0 EE    		MOV A, R6
  00D1 422D  		ORL 2Dh, A
  00D3 90E6BE		MOV DPTR, #0E6BEh
  00D6 E0    		MOVX A, @DPTR
  00D7 752F00		MOV 2Fh, #0h
  00DA F530  		MOV 30h, A
  00DC A3    		INC DPTR
  00DD E0    		MOVX A, @DPTR
  00DE FE    		MOV R6, A
  00DF E4    		CLR A
  00E0 EE    		MOV A, R6
  00E1 422F  		ORL 2Fh, A
  00E3 90E6B8		MOV DPTR, #0E6B8h
  00E6 E0    		MOVX A, @DPTR
  00E7 64C0  		XRL A, #0C0h
  00E9 6003  		JZ L00EE
  00EB 0201B3		LJMP L01B3

L00EE:
  00EE E530  		MOV A, 30h
  00F0 452F  		ORL A, 2Fh
  00F2 7003  		JNZ L00F7
  00F4 0204D7		LJMP L04D7

L00F7:
  00F7 90E6A0		MOV DPTR, #0E6A0h
  00FA E0    		MOVX A, @DPTR
  00FB 20E1F9		JB ACC.1, L00F7
  00FE C3    		CLR C
  00FF E530  		MOV A, 30h
  0101 9440  		SUBB A, #40h
  0103 E52F  		MOV A, 2Fh
  0105 9400  		SUBB A, #0h
  0107 5008  		JNC L0111
  0109 852F31		MOV 31h, 2Fh
  010C 853032		MOV 32h, 30h
  010F 8006  		SJMP L0117

L0111:
  0111 753100		MOV 31h, #0h
  0114 753240		MOV 32h, #40h
L0117:
  0117 90E6B9		MOV DPTR, #0E6B9h
  011A E0    		MOVX A, @DPTR
  011B B4A335		CJNE A, #0A3h, L0153
  011E E4    		CLR A
  011F F533  		MOV 33h, A
  0121 F534  		MOV 34h, A
L0123:
  0123 C3    		CLR C
  0124 E534  		MOV A, 34h
  0126 9532  		SUBB A, 32h
  0128 E533  		MOV A, 33h
  012A 9531  		SUBB A, 31h
  012C 5060  		JNC L018E
  012E E52E  		MOV A, 2Eh
  0130 2534  		ADD A, 34h
  0132 F582  		MOV DPL, A
  0134 E52D  		MOV A, 2Dh
  0136 3533  		ADDC A, 33h
  0138 F583  		MOV DPH, A
  013A E0    		MOVX A, @DPTR
  013B FF    		MOV R7, A
  013C 7440  		MOV A, #40h
  013E 2534  		ADD A, 34h
  0140 F582  		MOV DPL, A
  0142 E4    		CLR A
  0143 34E7  		ADDC A, #0E7h
  0145 F583  		MOV DPH, A
  0147 EF    		MOV A, R7
  0148 F0    		MOVX @DPTR, A
  0149 0534  		INC 34h
  014B E534  		MOV A, 34h
  014D 7002  		JNZ L0151
  014F 0533  		INC 33h
L0151:
  0151 80D0  		SJMP L0123

L0153:
  0153 E4    		CLR A
  0154 F533  		MOV 33h, A
  0156 F534  		MOV 34h, A
L0158:
  0158 C3    		CLR C
  0159 E534  		MOV A, 34h
  015B 9532  		SUBB A, 32h
  015D E533  		MOV A, 33h
  015F 9531  		SUBB A, 31h
  0161 5018  		JNC L017B
  0163 7440  		MOV A, #40h
  0165 2534  		ADD A, 34h
  0167 F582  		MOV DPL, A
  0169 E4    		CLR A
  016A 34E7  		ADDC A, #0E7h
  016C F583  		MOV DPH, A
  016E 74CD  		MOV A, #0CDh
  0170 F0    		MOVX @DPTR, A
  0171 0534  		INC 34h
  0173 E534  		MOV A, 34h
  0175 7002  		JNZ L0179
  0177 0533  		INC 33h
L0179:
  0179 80DD  		SJMP L0158

L017B:
  017B AD32  		MOV R5, 32h
  017D 7AE7  		MOV R2, #0E7h
  017F 7940  		MOV R1, #40h
  0181 7EE7  		MOV R6, #0E7h
  0183 7F40  		MOV R7, #40h
  0185 AB07  		MOV R3, 7h
  0187 AF2E  		MOV R7, 2Eh
  0189 AE2D  		MOV R6, 2Dh
  018B 120FBD		LCALL L0FBD
L018E:
  018E E4    		CLR A
  018F 90E68A		MOV DPTR, #0E68Ah
  0192 F0    		MOVX @DPTR, A
  0193 90E68B		MOV DPTR, #0E68Bh
  0196 E532  		MOV A, 32h
  0198 F0    		MOVX @DPTR, A
  0199 252E  		ADD A, 2Eh
  019B F52E  		MOV 2Eh, A
  019D E531  		MOV A, 31h
  019F 352D  		ADDC A, 2Dh
  01A1 F52D  		MOV 2Dh, A
  01A3 C3    		CLR C
  01A4 E530  		MOV A, 30h
  01A6 9532  		SUBB A, 32h
  01A8 F530  		MOV 30h, A
  01AA E52F  		MOV A, 2Fh
  01AC 9531  		SUBB A, 31h
  01AE F52F  		MOV 2Fh, A
  01B0 0200EE		LJMP L00EE

L01B3:
  01B3 90E6B8		MOV DPTR, #0E6B8h
  01B6 E0    		MOVX A, @DPTR
  01B7 6440  		XRL A, #40h
  01B9 6003  		JZ L01BE
  01BB 0204D7		LJMP L04D7

L01BE:
  01BE E530  		MOV A, 30h
  01C0 452F  		ORL A, 2Fh
  01C2 7003  		JNZ L01C7
  01C4 0204D7		LJMP L04D7

L01C7:
  01C7 E4    		CLR A
  01C8 90E68A		MOV DPTR, #0E68Ah
  01CB F0    		MOVX @DPTR, A
  01CC 90E68B		MOV DPTR, #0E68Bh
  01CF F0    		MOVX @DPTR, A
L01D0:
  01D0 90E6A0		MOV DPTR, #0E6A0h
  01D3 E0    		MOVX A, @DPTR
  01D4 20E1F9		JB ACC.1, L01D0
  01D7 90E68B		MOV DPTR, #0E68Bh
  01DA E0    		MOVX A, @DPTR
  01DB 753100		MOV 31h, #0h
  01DE F532  		MOV 32h, A
  01E0 90E6B9		MOV DPTR, #0E6B9h
  01E3 E0    		MOVX A, @DPTR
  01E4 B4A335		CJNE A, #0A3h, L021C
  01E7 E4    		CLR A
  01E8 F533  		MOV 33h, A
  01EA F534  		MOV 34h, A
L01EC:
  01EC C3    		CLR C
  01ED E534  		MOV A, 34h
  01EF 9532  		SUBB A, 32h
  01F1 E533  		MOV A, 33h
  01F3 9531  		SUBB A, 31h
  01F5 5038  		JNC L022F
  01F7 7440  		MOV A, #40h
  01F9 2534  		ADD A, 34h
  01FB F582  		MOV DPL, A
  01FD E4    		CLR A
  01FE 34E7  		ADDC A, #0E7h
  0200 F583  		MOV DPH, A
  0202 E0    		MOVX A, @DPTR
  0203 FF    		MOV R7, A
  0204 E52E  		MOV A, 2Eh
  0206 2534  		ADD A, 34h
  0208 F582  		MOV DPL, A
  020A E52D  		MOV A, 2Dh
  020C 3533  		ADDC A, 33h
  020E F583  		MOV DPH, A
  0210 EF    		MOV A, R7
  0211 F0    		MOVX @DPTR, A
  0212 0534  		INC 34h
  0214 E534  		MOV A, 34h
  0216 7002  		JNZ L021A
  0218 0533  		INC 33h
L021A:
  021A 80D0  		SJMP L01EC

L021C:
  021C AD32  		MOV R5, 32h
  021E 7AE7  		MOV R2, #0E7h
  0220 7940  		MOV R1, #40h
  0222 7EE7  		MOV R6, #0E7h
  0224 7F40  		MOV R7, #40h
  0226 AB07  		MOV R3, 7h
  0228 AF2E  		MOV R7, 2Eh
  022A AE2D  		MOV R6, 2Dh
  022C 12112D		LCALL L112D
L022F:
  022F E532  		MOV A, 32h
  0231 252E  		ADD A, 2Eh
  0233 F52E  		MOV 2Eh, A
  0235 E531  		MOV A, 31h
  0237 352D  		ADDC A, 2Dh
  0239 F52D  		MOV 2Dh, A
  023B C3    		CLR C
  023C E530  		MOV A, 30h
  023E 9532  		SUBB A, 32h
  0240 F530  		MOV 30h, A
  0242 E52F  		MOV A, 2Fh
  0244 9531  		SUBB A, 31h
  0246 F52F  		MOV 2Fh, A
  0248 0201BE		LJMP L01BE

L024B:
  024B E4    		CLR A
  024C 90E68A		MOV DPTR, #0E68Ah
  024F F0    		MOVX @DPTR, A
  0250 90E68B		MOV DPTR, #0E68Bh
  0253 F0    		MOVX @DPTR, A
L0254:
  0254 90E6A0		MOV DPTR, #0E6A0h
  0257 E0    		MOVX A, @DPTR
  0258 20E1F9		JB ACC.1, L0254
  025B 90E740		MOV DPTR, #0E740h
  025E E0    		MOVX A, @DPTR
  025F F535  		MOV 35h, A
  0261 14    		DEC A
  0262 6029  		JZ L028D
  0264 14    		DEC A
  0265 601D  		JZ L0284
  0267 24FD  		ADD A, #0FDh
  0269 6010  		JZ L027B
  026B 24FB  		ADD A, #0FBh
  026D 6003  		JZ L0272
  026F 0204D7		LJMP L04D7

L0272:
  0272 C2A4  		CLR P2.4
  0274 D2A3  		SETB P2.3
  0276 D2A2  		SETB P2.2
  0278 0204D7		LJMP L04D7

L027B:
  027B C2A4  		CLR P2.4
  027D C2A3  		CLR P2.3
  027F C2A2  		CLR P2.2
  0281 0204D7		LJMP L04D7

L0284:
  0284 C2A4  		CLR P2.4
  0286 C2A3  		CLR P2.3
  0288 D2A2  		SETB P2.2
  028A 0204D7		LJMP L04D7

L028D:
  028D C2A4  		CLR P2.4
  028F D2A3  		SETB P2.3
  0291 C2A2  		CLR P2.2
  0293 0204D7		LJMP L04D7

L0296:
  0296 E4    		CLR A
  0297 90E68A		MOV DPTR, #0E68Ah
  029A F0    		MOVX @DPTR, A
  029B 90E68B		MOV DPTR, #0E68Bh
  029E F0    		MOVX @DPTR, A
L029F:
  029F 90E6A0		MOV DPTR, #0E6A0h
  02A2 E0    		MOVX A, @DPTR
  02A3 20E1F9		JB ACC.1, L029F
  02A6 90E740		MOV DPTR, #0E740h
  02A9 E0    		MOVX A, @DPTR
  02AA F535  		MOV 35h, A
  02AC 24FE  		ADD A, #0FEh
L02AE:
  02AE 601A  		JZ L02CA
  02B0 24FD  		ADD A, #0FDh
  02B2 600D  		JZ L02C1
  02B4 24FB  		ADD A, #0FBh
  02B6 701B  		JNZ L02D3
  02B8 C2A7  		CLR P2.7
  02BA D2A6  		SETB P2.6
  02BC D2A5  		SETB P2.5
  02BE 0204D7		LJMP L04D7

L02C1:
  02C1 C2A7  		CLR P2.7
  02C3 C2A6  		CLR P2.6
  02C5 C2A5  		CLR P2.5
  02C7 0204D7		LJMP L04D7

L02CA:
  02CA C2A7  		CLR P2.7
  02CC C2A6  		CLR P2.6
  02CE D2A5  		SETB P2.5
  02D0 0204D7		LJMP L04D7

L02D3:
  02D3 C2A7  		CLR P2.7
  02D5 D2A6  		SETB P2.6
  02D7 C2A5  		CLR P2.5
  02D9 0204D7		LJMP L04D7

L02DC:
  02DC E4    		CLR A
  02DD 90E68A		MOV DPTR, #0E68Ah
  02E0 F0    		MOVX @DPTR, A
  02E1 90E68B		MOV DPTR, #0E68Bh
  02E4 F0    		MOVX @DPTR, A
L02E5:
  02E5 90E6A0		MOV DPTR, #0E6A0h
  02E8 E0    		MOVX A, @DPTR
  02E9 20E1F9		JB ACC.1, L02E5
  02EC 90E740		MOV DPTR, #0E740h
  02EF E0    		MOVX A, @DPTR
  02F0 F535  		MOV 35h, A
  02F2 120EF2		LCALL L0EF2
  02F5 03    		RR A
  02F6 8801  		MOV 1h, R0
  02F8 03    		RR A
  02F9 7404  		MOV A, #4h
  02FB 03    		RR A
  02FC 6008  		JZ L0306
  02FE 03    		RR A
  02FF C20A  		CLR 0Ah
  0301 03    		RR A
  0302 4D    		ORL A, R5
  0303 1003AF		JBC 3h, L02B5
L0306:
  0306 14    		DEC A
  0307 03    		RR A
  0308 3B    		ADDC A, R3
  0309 18    		DEC R0
  030A 03    		RR A
  030B 29    		ADD A, R1
  030C 1E    		DEC R6
  030D 03    		RR A
  030E 17    		DEC @R1
  030F 30039C		JNB 3h, L02AE
  0312 32    		RETI

  0313 00    		DB 000h 
  0314 00    		DB 000h 
  0315 03    		DB 003h 
  0316 D3    		DB 0D3h 
  0317 90    		DB 090h 
  0318 E6    		DB 0E6h 
  0319 01    		DB 001h 
  031A 74    		DB 074h ; 't'
  031B EA    		DB 0EAh 
  031C F0    		DB 0F0h 
  031D 90E050		MOV DPTR, #0E050h
  0320 74FF  		MOV A, #0FFh
  0322 F0    		MOVX @DPTR, A
  0323 751A01		MOV 1Ah, #1h
  0326 0203D3		LJMP L03D3

  0329 90    		DB 090h 
  032A E6    		DB 0E6h 
  032B 01    		DB 001h 
  032C 74    		DB 074h ; 't'
  032D AA    		DB 0AAh 
  032E F0    		DB 0F0h 
  032F 90    		DB 090h 
  0330 E0    		MOVX A, @DPTR
  0331 5074  		JNC L03A7
  0333 FF    		MOV R7, A
  0334 F0    		MOVX @DPTR, A
  0335 751A01		MOV 1Ah, #1h
  0338 0203D3		LJMP L03D3

  033B 90    		DB 090h 
  033C E6    		DB 0E6h 
  033D 01    		DB 001h 
  033E 74    		DB 074h ; 't'
  033F CA    		DB 0CAh 
  0340 F0    		MOVX @DPTR, A
  0341 90E050		MOV DPTR, #0E050h
  0344 74FB  		MOV A, #0FBh
  0346 F0    		MOVX @DPTR, A
  0347 751A01		MOV 1Ah, #1h
  034A 0203D3		LJMP L03D3

  034D 90    		DB 090h 
  034E E6    		DB 0E6h 
  034F 01    		DB 001h 
  0350 74CA  		MOV A, #0CAh
  0352 F0    		MOVX @DPTR, A
  0353 90E040		MOV DPTR, #0E040h
  0356 7401  		MOV A, #1h
  0358 F0    		MOVX @DPTR, A
  0359 A3    		INC DPTR
  035A F0    		MOVX @DPTR, A
  035B E4    		CLR A
  035C F51A  		MOV 1Ah, A
  035E 8073  		SJMP L03D3

  0360 90E601		MOV DPTR, #0E601h
  0363 74CA  		MOV A, #0CAh
  0365 F0    		MOVX @DPTR, A
  0366 90E040		MOV DPTR, #0E040h
  0369 7402  		MOV A, #2h
  036B F0    		MOVX @DPTR, A
  036C A3    		INC DPTR
  036D 04    		INC A
  036E F0    		MOVX @DPTR, A
  036F E4    		CLR A
  0370 F51A  		MOV 1Ah, A
  0372 805F  		SJMP L03D3

  0374 90    		DB 090h 
  0375 E6    		DB 0E6h 
  0376 01    		DB 001h 
  0377 74    		DB 074h ; 't'
  0378 CA    		DB 0CAh 
  0379 F0    		DB 0F0h 
  037A 90    		DB 090h 
  037B E0    		DB 0E0h 
  037C 40    		DB 040h ; '@'
  037D 74    		DB 074h ; 't'
  037E 05    		DB 005h 
  037F F0    		DB 0F0h 
  0380 A3    		DB 0A3h 
  0381 04    		DB 004h 
  0382 F0    		DB 0F0h 
  0383 E4    		DB 0E4h 
  0384 F5    		DB 0F5h 
  0385 1A    		DB 01Ah 
  0386 80    		DB 080h 
  0387 4B    		DB 04Bh ; 'K'
  0388 90    		DB 090h 
  0389 E6    		DB 0E6h 
  038A 01    		DB 001h 
  038B 74    		DB 074h ; 't'
  038C CA    		XCH A, R2
  038D F0    		MOVX @DPTR, A
  038E 90E040		MOV DPTR, #0E040h
  0391 7417  		MOV A, #17h
  0393 F0    		MOVX @DPTR, A
  0394 A3    		INC DPTR
  0395 04    		INC A
  0396 F0    		MOVX @DPTR, A
  0397 E4    		CLR A
  0398 F51A  		MOV 1Ah, A
  039A 8037  		SJMP L03D3

  039C 90    		DB 090h 
  039D E6    		DB 0E6h 
  039E 01    		DB 001h 
  039F 74    		DB 074h ; 't'
  03A0 CA    		DB 0CAh 
  03A1 F0    		DB 0F0h 
  03A2 90    		DB 090h 
  03A3 E0    		DB 0E0h 
  03A4 40    		DB 040h ; '@'
  03A5 74    		DB 074h ; 't'
  03A6 30    		DB 030h ; '0'
L03A7:
  03A7 F0    		MOVX @DPTR, A
  03A8 A3    		INC DPTR
  03A9 F0    		MOVX @DPTR, A
  03AA E4    		CLR A
  03AB F51A  		MOV 1Ah, A
  03AD 8024  		SJMP L03D3

  03AF 90E601		MOV DPTR, #0E601h
  03B2 74CA  		MOV A, #0CAh
  03B4 F0    		MOVX @DPTR, A
  03B5 90E040		MOV DPTR, #0E040h
  03B8 7478  		MOV A, #78h
  03BA F0    		MOVX @DPTR, A
  03BB A3    		INC DPTR
  03BC F0    		MOVX @DPTR, A
  03BD E4    		CLR A
  03BE F51A  		MOV 1Ah, A
  03C0 8011  		SJMP L03D3

  03C2 90E601		MOV DPTR, #0E601h
  03C5 74CA  		MOV A, #0CAh
  03C7 F0    		MOVX @DPTR, A
  03C8 90E040		MOV DPTR, #0E040h
  03CB 74F0  		MOV A, #0F0h
  03CD F0    		MOVX @DPTR, A
  03CE A3    		INC DPTR
  03CF F0    		MOVX @DPTR, A
  03D0 E4    		CLR A
  03D1 F51A  		MOV 1Ah, A
L03D3:
  03D3 90E6F5		MOV DPTR, #0E6F5h
  03D6 74FF  		MOV A, #0FFh
  03D8 F0    		MOVX @DPTR, A
  03D9 90E080		MOV DPTR, #0E080h
  03DC E0    		MOVX A, @DPTR
  03DD 90E6F3		MOV DPTR, #0E6F3h
  03E0 F0    		MOVX @DPTR, A
  03E1 90E081		MOV DPTR, #0E081h
  03E4 E0    		MOVX A, @DPTR
  03E5 90E6C3		MOV DPTR, #0E6C3h
  03E8 F0    		MOVX @DPTR, A
  03E9 90E082		MOV DPTR, #0E082h
  03EC E0    		MOVX A, @DPTR
  03ED 90E6C1		MOV DPTR, #0E6C1h
  03F0 F0    		MOVX @DPTR, A
  03F1 90E083		MOV DPTR, #0E083h
  03F4 E0    		MOVX A, @DPTR
  03F5 90E6C2		MOV DPTR, #0E6C2h
  03F8 F0    		MOVX @DPTR, A
  03F9 90E085		MOV DPTR, #0E085h
  03FC E0    		MOVX A, @DPTR
  03FD 90E6C0		MOV DPTR, #0E6C0h
  0400 F0    		MOVX @DPTR, A
  0401 90E086		MOV DPTR, #0E086h
  0404 E0    		MOVX A, @DPTR
  0405 90E6F4		MOV DPTR, #0E6F4h
  0408 F0    		MOVX @DPTR, A
  0409 75AF07		MOV 0AFh, #7h
  040C E51A  		MOV A, 1Ah
  040E B4010A		CJNE A, #1h, L041B
  0411 74E0  		MOV A, #0E0h
  0413 F59A  		MOV 9Ah, A
  0415 7487  		MOV A, #87h
  0417 F59B  		MOV 9Bh, A
  0419 8008  		SJMP L0423

L041B:
  041B 74E0  		MOV A, #0E0h
  041D F59A  		MOV 9Ah, A
  041F 7400  		MOV A, #0h
  0421 F59B  		MOV 9Bh, A
L0423:
  0423 759DE4		MOV 9Dh, #0E4h
  0426 E4    		CLR A
  0427 F59E  		MOV 9Eh, A
  0429 F533  		MOV 33h, A
  042B F534  		MOV 34h, A
L042D:
  042D 90E67B		MOV DPTR, #0E67Bh
  0430 E0    		MOVX A, @DPTR
  0431 90E67C		MOV DPTR, #0E67Ch
  0434 F0    		MOVX @DPTR, A
  0435 0534  		INC 34h
  0437 E534  		MOV A, 34h
  0439 7002  		JNZ L043D
  043B 0533  		INC 33h
L043D:
  043D 6480  		XRL A, #80h
  043F 4533  		ORL A, 33h
  0441 70EA  		JNZ L042D
  0443 0204D7		LJMP L04D7

L0446:
  0446 E4    		CLR A
  0447 90E68A		MOV DPTR, #0E68Ah
  044A F0    		MOVX @DPTR, A
  044B 90E68B		MOV DPTR, #0E68Bh
  044E F0    		MOVX @DPTR, A
L044F:
  044F 90E6A0		MOV DPTR, #0E6A0h
  0452 E0    		MOVX A, @DPTR
  0453 20E1F9		JB ACC.1, L044F
  0456 90E740		MOV DPTR, #0E740h
  0459 E0    		MOVX A, @DPTR
  045A F535  		MOV 35h, A
  045C 6401  		XRL A, #1h
  045E 7077  		JNZ L04D7
  0460 751D01		MOV 1Dh, #1h
  0463 8072  		SJMP L04D7

L0465:
  0465 90E6BA		MOV DPTR, #0E6BAh
  0468 E0    		MOVX A, @DPTR
  0469 752D00		MOV 2Dh, #0h
  046C F52E  		MOV 2Eh, A
  046E A3    		INC DPTR
  046F E0    		MOVX A, @DPTR
  0470 FE    		MOV R6, A
  0471 E4    		CLR A
  0472 EE    		MOV A, R6
  0473 422D  		ORL 2Dh, A
  0475 90E6BE		MOV DPTR, #0E6BEh
  0478 E0    		MOVX A, @DPTR
  0479 752F00		MOV 2Fh, #0h
  047C F530  		MOV 30h, A
  047E A3    		INC DPTR
  047F E0    		MOVX A, @DPTR
  0480 FE    		MOV R6, A
  0481 E4    		CLR A
  0482 EE    		MOV A, R6
  0483 422F  		ORL 2Fh, A
L0485:
  0485 E530  		MOV A, 30h
  0487 452F  		ORL A, 2Fh
  0489 604C  		JZ L04D7
L048B:
  048B 90E6A0		MOV DPTR, #0E6A0h
  048E E0    		MOVX A, @DPTR
  048F 20E1F9		JB ACC.1, L048B
  0492 C3    		CLR C
  0493 E530  		MOV A, 30h
  0495 9440  		SUBB A, #40h
  0497 E52F  		MOV A, 2Fh
  0499 9400  		SUBB A, #0h
  049B 5008  		JNC L04A5
  049D 852F31		MOV 31h, 2Fh
  04A0 853032		MOV 32h, 30h
  04A3 8006  		SJMP L04AB

L04A5:
  04A5 753100		MOV 31h, #0h
  04A8 753240		MOV 32h, #40h
L04AB:
  04AB 90E740		MOV DPTR, #0E740h
  04AE 7401  		MOV A, #1h
  04B0 F0    		MOVX @DPTR, A
  04B1 E4    		CLR A
  04B2 90E68A		MOV DPTR, #0E68Ah
  04B5 F0    		MOVX @DPTR, A
  04B6 90E68B		MOV DPTR, #0E68Bh
  04B9 E532  		MOV A, 32h
  04BB F0    		MOVX @DPTR, A
  04BC 252E  		ADD A, 2Eh
  04BE F52E  		MOV 2Eh, A
  04C0 E531  		MOV A, 31h
  04C2 352D  		ADDC A, 2Dh
  04C4 F52D  		MOV 2Dh, A
  04C6 C3    		CLR C
  04C7 E530  		MOV A, 30h
  04C9 9532  		SUBB A, 32h
  04CB F530  		MOV 30h, A
  04CD E52F  		MOV A, 2Fh
  04CF 9531  		SUBB A, 31h
  04D1 F52F  		MOV 2Fh, A
  04D3 80B0  		SJMP L0485

L04D5:
  04D5 D3    		SETB C
  04D6 22    		RET

L04D7:
  04D7 C3    		CLR C
  04D8 22    		RET

L04D9:
  04D9 90E6B9		MOV DPTR, #0E6B9h
  04DC E0    		MOVX A, @DPTR
  04DD 7003  		JNZ L04E2
  04DF 0205B5		LJMP L05B5

L04E2:
  04E2 14    		DEC A
  04E3 7003  		JNZ L04E8
  04E5 02065E		LJMP L065E

L04E8:
  04E8 24FE  		ADD A, #0FEh
  04EA 7003  		JNZ L04EF
  04EC 0206F3		LJMP L06F3

L04EF:
  04EF 24FB  		ADD A, #0FBh
  04F1 7003  		JNZ L04F6
  04F3 0205AF		LJMP L05AF

L04F6:
  04F6 14    		DEC A
  04F7 7003  		JNZ L04FC
  04F9 0205A9		LJMP L05A9

L04FC:
  04FC 14    		DEC A
  04FD 7003  		JNZ L0502
  04FF 02059D		LJMP L059D

L0502:
  0502 14    		DEC A
  0503 7003  		JNZ L0508
  0505 0205A3		LJMP L05A3

L0508:
  0508 2405  		ADD A, #5h
  050A 6003  		JZ L050F
  050C 02075F		LJMP L075F

L050F:
  050F 120046		LCALL L0046
  0512 4003  		JC L0517
  0514 02076B		LJMP L076B

L0517:
  0517 90E6BB		MOV DPTR, #0E6BBh
  051A E0    		MOVX A, @DPTR
  051B 24FE  		ADD A, #0FEh
  051D 602C  		JZ L054B
  051F 14    		DEC A
  0520 6047  		JZ L0569
  0522 24FD  		ADD A, #0FDh
  0524 6016  		JZ L053C
  0526 14    		DEC A
  0527 6031  		JZ L055A
  0529 2406  		ADD A, #6h
  052B 7066  		JNZ L0593
  052D E50C  		MOV A, 0Ch
  052F 90E6B3		MOV DPTR, #0E6B3h
  0532 F0    		MOVX @DPTR, A
  0533 E50D  		MOV A, 0Dh
  0535 90E6B4		MOV DPTR, #0E6B4h
  0538 F0    		MOVX @DPTR, A
  0539 02076B		LJMP L076B

L053C:
  053C E514  		MOV A, 14h
  053E 90E6B3		MOV DPTR, #0E6B3h
  0541 F0    		MOVX @DPTR, A
  0542 E515  		MOV A, 15h
  0544 90E6B4		MOV DPTR, #0E6B4h
  0547 F0    		MOVX @DPTR, A
  0548 02076B		LJMP L076B

L054B:
  054B E50E  		MOV A, 0Eh
  054D 90E6B3		MOV DPTR, #0E6B3h
  0550 F0    		MOVX @DPTR, A
  0551 E50F  		MOV A, 0Fh
  0553 90E6B4		MOV DPTR, #0E6B4h
  0556 F0    		MOVX @DPTR, A
  0557 02076B		LJMP L076B

L055A:
  055A E510  		MOV A, 10h
  055C 90E6B3		MOV DPTR, #0E6B3h
  055F F0    		MOVX @DPTR, A
  0560 E511  		MOV A, 11h
  0562 90E6B4		MOV DPTR, #0E6B4h
  0565 F0    		MOVX @DPTR, A
  0566 02076B		LJMP L076B

L0569:
  0569 90E6BA		MOV DPTR, #0E6BAh
  056C E0    		MOVX A, @DPTR
  056D FF    		MOV R7, A
  056E 121255		LCALL L1255
  0571 AA06  		MOV R2, 6h
  0573 A907  		MOV R1, 7h
  0575 7B01  		MOV R3, #1h
  0577 EA    		MOV A, R2
  0578 49    		ORL A, R1
  0579 4B    		ORL A, R3
  057A 600D  		JZ L0589
  057C EE    		MOV A, R6
  057D 90E6B3		MOV DPTR, #0E6B3h
  0580 F0    		MOVX @DPTR, A
  0581 EF    		MOV A, R7
  0582 90E6B4		MOV DPTR, #0E6B4h
  0585 F0    		MOVX @DPTR, A
  0586 02076B		LJMP L076B

L0589:
  0589 90E6A0		MOV DPTR, #0E6A0h
  058C E0    		MOVX A, @DPTR
  058D 4401  		ORL A, #1h
  058F F0    		MOVX @DPTR, A
  0590 02076B		LJMP L076B

L0593:
  0593 90E6A0		MOV DPTR, #0E6A0h
  0596 E0    		MOVX A, @DPTR
  0597 4401  		ORL A, #1h
  0599 F0    		MOVX @DPTR, A
  059A 02076B		LJMP L076B

L059D:
  059D 1212EF		LCALL L12EF
  05A0 02076B		LJMP L076B

L05A3:
  05A3 121301		LCALL L1301
  05A6 02076B		LJMP L076B

L05A9:
  05A9 12104C		LCALL L104C
  05AC 02076B		LJMP L076B

L05AF:
  05AF 1212DD		LCALL L12DD
  05B2 02076B		LJMP L076B

L05B5:
  05B5 120048		LCALL L0048
  05B8 4003  		JC L05BD
  05BA 02076B		LJMP L076B

L05BD:
  05BD 90E6B8		MOV DPTR, #0E6B8h
  05C0 E0    		MOVX A, @DPTR
  05C1 247F  		ADD A, #7Fh
  05C3 602B  		JZ L05F0
  05C5 14    		DEC A
  05C6 603C  		JZ L0604
  05C8 2402  		ADD A, #2h
  05CA 6003  		JZ L05CF
  05CC 020654		LJMP L0654

L05CF:
  05CF A200  		MOV C, 0h
  05D1 E4    		CLR A
  05D2 33    		RLC A
  05D3 FF    		MOV R7, A
  05D4 25E0  		ADD A, ACC
  05D6 FF    		MOV R7, A
  05D7 A203  		MOV C, 3h
  05D9 E4    		CLR A
  05DA 33    		RLC A
  05DB 4F    		ORL A, R7
  05DC 90E740		MOV DPTR, #0E740h
  05DF F0    		MOVX @DPTR, A
  05E0 E4    		CLR A
  05E1 A3    		INC DPTR
  05E2 F0    		MOVX @DPTR, A
  05E3 90E68A		MOV DPTR, #0E68Ah
  05E6 F0    		MOVX @DPTR, A
  05E7 90E68B		MOV DPTR, #0E68Bh
  05EA 7402  		MOV A, #2h
  05EC F0    		MOVX @DPTR, A
  05ED 02076B		LJMP L076B

L05F0:
  05F0 E4    		CLR A
  05F1 90E740		MOV DPTR, #0E740h
  05F4 F0    		MOVX @DPTR, A
  05F5 A3    		INC DPTR
  05F6 F0    		MOVX @DPTR, A
  05F7 90E68A		MOV DPTR, #0E68Ah
  05FA F0    		MOVX @DPTR, A
  05FB 90E68B		MOV DPTR, #0E68Bh
  05FE 7402  		MOV A, #2h
  0600 F0    		MOVX @DPTR, A
  0601 02076B		LJMP L076B

L0604:
  0604 90E6BC		MOV DPTR, #0E6BCh
  0607 E0    		MOVX A, @DPTR
  0608 547E  		ANL A, #7Eh
  060A FF    		MOV R7, A
  060B 7E00  		MOV R6, #0h
  060D E0    		MOVX A, @DPTR
  060E D3    		SETB C
  060F 9480  		SUBB A, #80h
  0611 4006  		JC L0619
  0613 7C00  		MOV R4, #0h
  0615 7D01  		MOV R5, #1h
  0617 8004  		SJMP L061D

L0619:
  0619 7C00  		MOV R4, #0h
  061B 7D00  		MOV R5, #0h
L061D:
  061D EC    		MOV A, R4
  061E 4E    		ORL A, R6
  061F FE    		MOV R6, A
  0620 ED    		MOV A, R5
  0621 4F    		ORL A, R7
  0622 2436  		ADD A, #36h
  0624 F582  		MOV DPL, A
  0626 7400  		MOV A, #0h
  0628 3E    		ADDC A, R6
  0629 F583  		MOV DPH, A
  062B E4    		CLR A
  062C 93    		MOVC A, @A+DPTR
  062D FF    		MOV R7, A
  062E 33    		RLC A
  062F 95E0  		SUBB A, ACC
  0631 FE    		MOV R6, A
  0632 EF    		MOV A, R7
  0633 24A1  		ADD A, #0A1h
  0635 FF    		MOV R7, A
  0636 EE    		MOV A, R6
  0637 34E6  		ADDC A, #0E6h
  0639 8F82  		MOV DPL, R7
  063B F583  		MOV DPH, A
  063D E0    		MOVX A, @DPTR
  063E 5401  		ANL A, #1h
  0640 90E740		MOV DPTR, #0E740h
  0643 F0    		MOVX @DPTR, A
  0644 E4    		CLR A
  0645 A3    		INC DPTR
  0646 F0    		MOVX @DPTR, A
  0647 90E68A		MOV DPTR, #0E68Ah
  064A F0    		MOVX @DPTR, A
  064B 90E68B		MOV DPTR, #0E68Bh
  064E 7402  		MOV A, #2h
  0650 F0    		MOVX @DPTR, A
  0651 02076B		LJMP L076B

L0654:
  0654 90E6A0		MOV DPTR, #0E6A0h
  0657 E0    		MOVX A, @DPTR
  0658 4401  		ORL A, #1h
  065A F0    		MOVX @DPTR, A
  065B 02076B		LJMP L076B

L065E:
  065E 12004E		LCALL L004E
  0661 4003  		JC L0666
  0663 02076B		LJMP L076B

L0666:
  0666 90E6B8		MOV DPTR, #0E6B8h
  0669 E0    		MOVX A, @DPTR
  066A 24FE  		ADD A, #0FEh
  066C 601D  		JZ L068B
  066E 2402  		ADD A, #2h
  0670 6003  		JZ L0675
  0672 02076B		LJMP L076B

L0675:
  0675 90E6BA		MOV DPTR, #0E6BAh
  0678 E0    		MOVX A, @DPTR
  0679 B40105		CJNE A, #1h, L0681
  067C C200  		CLR 0h
  067E 02076B		LJMP L076B

L0681:
  0681 90E6A0		MOV DPTR, #0E6A0h
  0684 E0    		MOVX A, @DPTR
  0685 4401  		ORL A, #1h
  0687 F0    		MOVX @DPTR, A
  0688 02076B		LJMP L076B

L068B:
  068B 90E6BA		MOV DPTR, #0E6BAh
  068E E0    		MOVX A, @DPTR
  068F 7059  		JNZ L06EA
  0691 90E6BC		MOV DPTR, #0E6BCh
  0694 E0    		MOVX A, @DPTR
  0695 547E  		ANL A, #7Eh
  0697 FF    		MOV R7, A
  0698 7E00  		MOV R6, #0h
  069A E0    		MOVX A, @DPTR
  069B D3    		SETB C
  069C 9480  		SUBB A, #80h
  069E 4006  		JC L06A6
  06A0 7C00  		MOV R4, #0h
  06A2 7D01  		MOV R5, #1h
  06A4 8004  		SJMP L06AA

L06A6:
  06A6 7C00  		MOV R4, #0h
  06A8 7D00  		MOV R5, #0h
L06AA:
  06AA EC    		MOV A, R4
  06AB 4E    		ORL A, R6
  06AC FE    		MOV R6, A
  06AD ED    		MOV A, R5
  06AE 4F    		ORL A, R7
  06AF 2436  		ADD A, #36h
  06B1 F582  		MOV DPL, A
  06B3 7400  		MOV A, #0h
  06B5 3E    		ADDC A, R6
  06B6 F583  		MOV DPH, A
  06B8 E4    		CLR A
  06B9 93    		MOVC A, @A+DPTR
  06BA FF    		MOV R7, A
  06BB 33    		RLC A
  06BC 95E0  		SUBB A, ACC
  06BE FE    		MOV R6, A
  06BF EF    		MOV A, R7
  06C0 24A1  		ADD A, #0A1h
  06C2 FF    		MOV R7, A
  06C3 EE    		MOV A, R6
  06C4 34E6  		ADDC A, #0E6h
  06C6 8F82  		MOV DPL, R7
  06C8 F583  		MOV DPH, A
  06CA E0    		MOVX A, @DPTR
  06CB 54FE  		ANL A, #0FEh
  06CD F0    		MOVX @DPTR, A
  06CE 90E6BC		MOV DPTR, #0E6BCh
  06D1 E0    		MOVX A, @DPTR
  06D2 5480  		ANL A, #80h
  06D4 FF    		MOV R7, A
  06D5 13    		RRC A
  06D6 13    		RRC A
  06D7 13    		RRC A
  06D8 541F  		ANL A, #1Fh
  06DA FF    		MOV R7, A
  06DB E0    		MOVX A, @DPTR
  06DC 540F  		ANL A, #0Fh
  06DE 2F    		ADD A, R7
  06DF 90E683		MOV DPTR, #0E683h
  06E2 F0    		MOVX @DPTR, A
  06E3 E0    		MOVX A, @DPTR
  06E4 4420  		ORL A, #20h
  06E6 F0    		MOVX @DPTR, A
  06E7 02076B		LJMP L076B

L06EA:
  06EA 90E6A0		MOV DPTR, #0E6A0h
  06ED E0    		MOVX A, @DPTR
  06EE 4401  		ORL A, #1h
  06F0 F0    		MOVX @DPTR, A
  06F1 8078  		SJMP L076B

L06F3:
  06F3 120050		LCALL L0050
  06F6 5073  		JNC L076B
  06F8 90E6B8		MOV DPTR, #0E6B8h
  06FB E0    		MOVX A, @DPTR
  06FC 24FE  		ADD A, #0FEh
  06FE 6020  		JZ L0720
  0700 2402  		ADD A, #2h
  0702 7067  		JNZ L076B
  0704 90E6BA		MOV DPTR, #0E6BAh
  0707 E0    		MOVX A, @DPTR
  0708 B40104		CJNE A, #1h, L070F
  070B D200  		SETB 0h
  070D 805C  		SJMP L076B

L070F:
  070F 90E6BA		MOV DPTR, #0E6BAh
  0712 E0    		MOVX A, @DPTR
  0713 6402  		XRL A, #2h
  0715 6054  		JZ L076B
  0717 90E6A0		MOV DPTR, #0E6A0h
  071A E0    		MOVX A, @DPTR
  071B 4401  		ORL A, #1h
  071D F0    		MOVX @DPTR, A
  071E 804B  		SJMP L076B

L0720:
  0720 90E6BC		MOV DPTR, #0E6BCh
  0723 E0    		MOVX A, @DPTR
  0724 547E  		ANL A, #7Eh
  0726 FF    		MOV R7, A
  0727 7E00  		MOV R6, #0h
  0729 E0    		MOVX A, @DPTR
  072A D3    		SETB C
  072B 9480  		SUBB A, #80h
  072D 4006  		JC L0735
  072F 7C00  		MOV R4, #0h
  0731 7D01  		MOV R5, #1h
  0733 8004  		SJMP L0739

L0735:
  0735 7C00  		MOV R4, #0h
  0737 7D00  		MOV R5, #0h
L0739:
  0739 EC    		MOV A, R4
  073A 4E    		ORL A, R6
  073B FE    		MOV R6, A
  073C ED    		MOV A, R5
  073D 4F    		ORL A, R7
  073E 2436  		ADD A, #36h
  0740 F582  		MOV DPL, A
  0742 7400  		MOV A, #0h
  0744 3E    		ADDC A, R6
  0745 F583  		MOV DPH, A
  0747 E4    		CLR A
  0748 93    		MOVC A, @A+DPTR
  0749 FF    		MOV R7, A
  074A 33    		RLC A
  074B 95E0  		SUBB A, ACC
  074D FE    		MOV R6, A
  074E EF    		MOV A, R7
  074F 24A1  		ADD A, #0A1h
  0751 FF    		MOV R7, A
  0752 EE    		MOV A, R6
  0753 34E6  		ADDC A, #0E6h
  0755 8F82  		MOV DPL, R7
  0757 F583  		MOV DPH, A
  0759 E0    		MOVX A, @DPTR
  075A 4401  		ORL A, #1h
  075C F0    		MOVX @DPTR, A
  075D 800C  		SJMP L076B

L075F:
  075F 120056		LCALL L0056
  0762 5007  		JNC L076B
  0764 90E6A0		MOV DPTR, #0E6A0h
  0767 E0    		MOVX A, @DPTR
  0768 4401  		ORL A, #1h
  076A F0    		MOVX @DPTR, A
L076B:
  076B 90E6A0		MOV DPTR, #0E6A0h
  076E E0    		MOVX A, @DPTR
  076F 4480  		ORL A, #80h
  0771 F0    		MOVX @DPTR, A
  0772 22    		RET

L0773:
  0773 C204  		CLR 4h
  0775 C200  		CLR 0h
  0777 C203  		CLR 3h
  0779 C201  		CLR 1h
  077B C202  		CLR 2h
  077D 750808		MOV 8h, #8h
  0780 750907		MOV 9h, #7h
  0783 120CB8		LCALL L0CB8
  0786 C2C9  		CLR 0C9h
  0788 75CDF8		MOV 0CDh, #0F8h
  078B 75CC40		MOV 0CCh, #40h
  078E D2CA  		SETB 0CAh
  0790 D2AD  		SETB 0ADh
  0792 C287  		CLR P0.7
  0794 C2A0  		CLR P2.0
  0796 D2A1  		SETB P2.1
  0798 7E0E  		MOV R6, #0Eh
  079A 7F00  		MOV R7, #0h
  079C 8E0C  		MOV 0Ch, R6
  079E 8F0D  		MOV 0Dh, R7
  07A0 75140E		MOV 14h, #0Eh
  07A3 751512		MOV 15h, #12h
  07A6 750A0E		MOV 0Ah, #0Eh
  07A9 750B1C		MOV 0Bh, #1Ch
  07AC 75120E		MOV 12h, #0Eh
  07AF 75133C		MOV 13h, #3Ch
  07B2 75160E		MOV 16h, #0Eh
  07B5 75175C		MOV 17h, #5Ch
  07B8 90E680		MOV DPTR, #0E680h
  07BB E0    		MOVX A, @DPTR
  07BC 30E70E		JNB ACC.7, L07CD
  07BF 850A0E		MOV 0Eh, 0Ah
  07C2 850B0F		MOV 0Fh, 0Bh
  07C5 851210		MOV 10h, 12h
  07C8 851311		MOV 11h, 13h
  07CB 800C  		SJMP L07D9

L07CD:
  07CD 85120E		MOV 0Eh, 12h
  07D0 85130F		MOV 0Fh, 13h
  07D3 850A10		MOV 10h, 0Ah
  07D6 850B11		MOV 11h, 0Bh
L07D9:
  07D9 EE    		MOV A, R6
  07DA 54E0  		ANL A, #0E0h
  07DC 7003  		JNZ L07E1
  07DE 0208F7		LJMP L08F7

L07E1:
  07E1 752900		MOV 29h, #0h
  07E4 752A80		MOV 2Ah, #80h
  07E7 7E0E  		MOV R6, #0Eh
  07E9 7F00  		MOV R7, #0h
  07EB 8E2B  		MOV 2Bh, R6
  07ED 8F2C  		MOV 2Ch, R7
  07EF C3    		CLR C
  07F0 7490  		MOV A, #90h
  07F2 9F    		SUBB A, R7
  07F3 FF    		MOV R7, A
  07F4 740E  		MOV A, #0Eh
  07F6 9E    		SUBB A, R6
  07F7 CF    		XCH A, R7
  07F8 2402  		ADD A, #2h
  07FA CF    		XCH A, R7
  07FB 3400  		ADDC A, #0h
  07FD FE    		MOV R6, A
  07FE E4    		CLR A
  07FF 8F28  		MOV 28h, R7
L0801:
  0801 8E27  		MOV 27h, R6
  0803 F526  		MOV 26h, A
  0805 F525  		MOV 25h, A
  0807 F524  		MOV 24h, A
  0809 F523  		MOV 23h, A
  080B F522  		MOV 22h, A
  080D F521  		MOV 21h, A
L080F:
  080F AF28  		MOV R7, 28h
L0811:
  0811 AE27  		MOV R6, 27h
  0813 AD26  		MOV R5, 26h
  0815 AC25  		MOV R4, 25h
  0817 AB24  		MOV R3, 24h
  0819 AA23  		MOV R2, 23h
  081B A922  		MOV R1, 22h
  081D A821  		MOV R0, 21h
  081F C3    		CLR C
  0820 120EE1		LCALL L0EE1
  0823 502A  		JNC L084F
  0825 E52A  		MOV A, 2Ah
  0827 2524  		ADD A, 24h
  0829 F582  		MOV DPL, A
  082B E529  		MOV A, 29h
  082D 3523  		ADDC A, 23h
  082F F583  		MOV DPH, A
  0831 74CD  		MOV A, #0CDh
  0833 F0    		MOVX @DPTR, A
  0834 E4    		CLR A
  0835 FA    		MOV R2, A
  0836 F9    		MOV R1, A
  0837 F8    		MOV R0, A
  0838 E524  		MOV A, 24h
  083A 2401  		ADD A, #1h
  083C F524  		MOV 24h, A
  083E EA    		MOV A, R2
  083F 3523  		ADDC A, 23h
  0841 F523  		MOV 23h, A
  0843 E9    		MOV A, R1
  0844 3522  		ADDC A, 22h
  0846 F522  		MOV 22h, A
  0848 E8    		MOV A, R0
  0849 3521  		ADDC A, 21h
  084B F521  		MOV 21h, A
  084D 80C0  		SJMP L080F

L084F:
  084F E4    		CLR A
  0850 F524  		MOV 24h, A
  0852 F523  		MOV 23h, A
  0854 F522  		MOV 22h, A
  0856 F521  		MOV 21h, A
L0858:
  0858 AF28  		MOV R7, 28h
  085A AE27  		MOV R6, 27h
  085C AD26  		MOV R5, 26h
  085E AC25  		MOV R4, 25h
  0860 AB24  		MOV R3, 24h
  0862 AA23  		MOV R2, 23h
  0864 A922  		MOV R1, 22h
  0866 A821  		MOV R0, 21h
  0868 C3    		CLR C
  0869 120EE1		LCALL L0EE1
  086C 5037  		JNC L08A5
  086E E52C  		MOV A, 2Ch
  0870 2524  		ADD A, 24h
  0872 F582  		MOV DPL, A
  0874 E52B  		MOV A, 2Bh
  0876 3523  		ADDC A, 23h
  0878 F583  		MOV DPH, A
  087A E0    		MOVX A, @DPTR
  087B FF    		MOV R7, A
  087C E52A  		MOV A, 2Ah
  087E 2524  		ADD A, 24h
  0880 F582  		MOV DPL, A
  0882 E529  		MOV A, 29h
  0884 3523  		ADDC A, 23h
  0886 F583  		MOV DPH, A
  0888 EF    		MOV A, R7
  0889 F0    		MOVX @DPTR, A
  088A E4    		CLR A
  088B FA    		MOV R2, A
  088C F9    		MOV R1, A
  088D F8    		MOV R0, A
  088E E524  		MOV A, 24h
  0890 2401  		ADD A, #1h
  0892 F524  		MOV 24h, A
  0894 EA    		MOV A, R2
  0895 3523  		ADDC A, 23h
  0897 F523  		MOV 23h, A
  0899 E9    		MOV A, R1
  089A 3522  		ADDC A, 22h
  089C F522  		MOV 22h, A
  089E E8    		MOV A, R0
  089F 3521  		ADDC A, 21h
  08A1 F521  		MOV 21h, A
  08A3 80B3  		SJMP L0858

L08A5:
  08A5 85290C		MOV 0Ch, 29h
  08A8 852A0D		MOV 0Dh, 2Ah
  08AB 7400  		MOV A, #0h
  08AD 2480  		ADD A, #80h
  08AF FF    		MOV R7, A
  08B0 740E  		MOV A, #0Eh
  08B2 34FF  		ADDC A, #0FFh
  08B4 FE    		MOV R6, A
  08B5 C3    		CLR C
  08B6 E515  		MOV A, 15h
  08B8 9F    		SUBB A, R7
  08B9 F515  		MOV 15h, A
  08BB E514  		MOV A, 14h
  08BD 9E    		SUBB A, R6
  08BE F514  		MOV 14h, A
  08C0 C3    		CLR C
  08C1 E50F  		MOV A, 0Fh
  08C3 9F    		SUBB A, R7
  08C4 F50F  		MOV 0Fh, A
  08C6 E50E  		MOV A, 0Eh
  08C8 9E    		SUBB A, R6
  08C9 F50E  		MOV 0Eh, A
  08CB C3    		CLR C
  08CC E511  		MOV A, 11h
  08CE 9F    		SUBB A, R7
  08CF F511  		MOV 11h, A
  08D1 E510  		MOV A, 10h
  08D3 9E    		SUBB A, R6
  08D4 F510  		MOV 10h, A
  08D6 C3    		CLR C
  08D7 E50B  		MOV A, 0Bh
  08D9 9F    		SUBB A, R7
  08DA F50B  		MOV 0Bh, A
  08DC E50A  		MOV A, 0Ah
  08DE 9E    		SUBB A, R6
  08DF F50A  		MOV 0Ah, A
  08E1 C3    		CLR C
L08E2:
  08E2 E513  		MOV A, 13h
  08E4 9F    		SUBB A, R7
  08E5 F513  		MOV 13h, A
  08E7 E512  		MOV A, 12h
  08E9 9E    		SUBB A, R6
  08EA F512  		MOV 12h, A
  08EC C3    		CLR C
  08ED E517  		MOV A, 17h
  08EF 9F    		SUBB A, R7
  08F0 F517  		MOV 17h, A
  08F2 E516  		MOV A, 16h
  08F4 9E    		SUBB A, R6
  08F5 F516  		MOV 16h, A
L08F7:
  08F7 D2E8  		SETB 0E8h
  08F9 43D820		ORL 0D8h, #20h
  08FC 90E668		MOV DPTR, #0E668h
  08FF E0    		MOVX A, @DPTR
  0900 4409  		ORL A, #9h
  0902 F0    		MOVX @DPTR, A
  0903 90E65C		MOV DPTR, #0E65Ch
  0906 E0    		MOVX A, @DPTR
  0907 443D  		ORL A, #3Dh
  0909 F0    		MOVX @DPTR, A
  090A D2AF  		SETB EA
  090C 90E680		MOV DPTR, #0E680h
  090F E0    		MOVX A, @DPTR
  0910 20E105		JB ACC.1, L0918
  0913 D206  		SETB 6h
  0915 1211FA		LCALL L11FA
L0918:
  0918 90E680		MOV DPTR, #0E680h
  091B E0    		MOVX A, @DPTR
  091C 54F7  		ANL A, #0F7h
  091E F0    		MOVX @DPTR, A
  091F 538EF8		ANL 8Eh, #0F8h
  0922 C204  		CLR 4h
L0924:
  0924 300105		JNB 1h, L092C
  0927 1204D9		LCALL L04D9
  092A C201  		CLR 1h
L092C:
  092C 300429		JNB 4h, L0958
  092F 120028		LCALL L0028
  0932 5024  		JNC L0958
  0934 C204  		CLR 4h
L0936:
  0936 120003		LCALL L0003
  0939 200016		JB 0h, L0952
  093C 90E682		MOV DPTR, #0E682h
  093F E0    		MOVX A, @DPTR
  0940 30E704		JNB ACC.7, L0947
  0943 E0    		MOVX A, @DPTR
  0944 20E1EF		JB ACC.1, L0936
L0947:
  0947 90E682		MOV DPTR, #0E682h
  094A E0    		MOVX A, @DPTR
  094B 30E604		JNB ACC.6, L0952
  094E E0    		MOVX A, @DPTR
  094F 20E0E4		JB ACC.0, L0936
L0952:
  0952 121229		LCALL L1229
  0955 120040		LCALL L0040
L0958:
  0958 120B7B		LCALL L0B7B
  095B 80C7  		SJMP L0924

  095D 22    		RET

  095E C105  		AJMP L0E05

  0960 6080  		JZ L08E2
  0962 E0    		MOVX A, @DPTR
  0963 00    		NOP
  0964 0E    		INC R6
  0965 03    		RR A
  0966 0111  		AJMP L0811

  0968 0101  		AJMP L0801

  096A 300701		JNB 7h, L096E
  096D 00    		NOP
L096E:
  096E 020100		LJMP L0100

  0971 00    		NOP
  0972 1100  		ACALL L0800
  0974 FF    		MOV R7, A
  0975 FE    		MOV R6, A
  0976 FF    		MOV R7, A
  0977 FE    		MOV R6, A
  0978 FF    		MOV R7, A
  0979 FE    		MOV R6, A
  097A FF    		MOV R7, A
  097B FF    		MOV R7, A
  097C 00    		NOP
  097D 09    		INC R1
  097E 121200		LCALL L1200
  0981 2D    		ADD A, R5
  0982 123F08		LCALL L3F08
  0985 03    		RR A
  0986 0101  		AJMP L0801

  0988 01    		DB 001h 
  0989 01    		DB 001h 
  098A 01    		DB 001h 
  098B 07    		DB 007h 
  098C 01    		DB 001h 
  098D 02    		DB 002h 
  098E 04    		DB 004h 
  098F 01    		DB 001h 
  0990 00    		DB 000h 
  0991 00    		DB 000h 
  0992 00    		DB 000h 
  0993 00    		DB 000h 
  0994 FF    		DB 0FFh 
  0995 FC    		DB 0FCh 
  0996 FF    		DB 0FFh 
  0997 FE    		DB 0FEh 
  0998 FF    		DB 0FFh 
  0999 FE    		DB 0FEh 
  099A FF    		DB 0FFh 
  099B FF    		DB 0FFh 
  099C 09    		DB 009h 
  099D 09    		DB 009h 
  099E 12    		DB 012h 
  099F 12    		DB 012h 
  09A0 00    		DB 000h 
  09A1 2D    		DB 02Dh ; '-'
  09A2 36    		DB 036h ; '6'
  09A3 3F    		DB 03Fh ; '?'
  09A4 17    		DB 017h 
  09A5 18    		DB 018h 
  09A6 01    		DB 001h 
  09A7 01    		DB 001h 
  09A8 01    		DB 001h 
  09A9 01    		DB 001h 
  09AA 01    		DB 001h 
  09AB 07    		DB 007h 
  09AC 00    		DB 000h 
  09AD 02    		DB 002h 
  09AE 01    		DB 001h 
  09AF 00    		DB 000h 
  09B0 00    		DB 000h 
  09B1 00    		DB 000h 
  09B2 10    		DB 010h 
  09B3 00    		DB 000h 
  09B4 FF    		DB 0FFh 
  09B5 FB    		DB 0FBh 
  09B6 FF    		DB 0FFh 
  09B7 FB    		DB 0FBh 
  09B8 FB    		DB 0FBh 
  09B9 FB    		DB 0FBh 
  09BA FB    		DB 0FBh 
  09BB FB    		DB 0FBh 
  09BC 00    		DB 000h 
  09BD 09    		DB 009h 
  09BE 12    		DB 012h 
  09BF 12    		DB 012h 
  09C0 00    		DB 000h 
  09C1 2D    		DB 02Dh ; '-'
  09C2 12    		DB 012h 
  09C3 3F    		DB 03Fh ; '?'
  09C4 08    		DB 008h 
  09C5 03    		DB 003h 
  09C6 01    		DB 001h 
  09C7 3F    		DB 03Fh ; '?'
  09C8 01    		DB 001h 
  09C9 01    		DB 001h 
  09CA 01    		DB 001h 
  09CB 07    		DB 007h 
  09CC 01    		DB 001h 
  09CD 02    		DB 002h 
  09CE 00    		DB 000h 
  09CF 01    		DB 001h 
  09D0 00    		DB 000h 
  09D1 00    		DB 000h 
  09D2 00    		DB 000h 
  09D3 00    		DB 000h 
  09D4 FF    		DB 0FFh 
  09D5 FD    		DB 0FDh 
  09D6 FF    		DB 0FFh 
  09D7 FF    		DB 0FFh 
  09D8 FF    		DB 0FFh 
  09D9 FF    		DB 0FFh 
  09DA FF    		DB 0FFh 
  09DB FF    		DB 0FFh 
  09DC 09    		DB 009h 
  09DD 09    		DB 009h 
  09DE 12    		DB 012h 
  09DF 12    		DB 012h 
  09E0 00    		DB 000h 
  09E1 2D    		DB 02Dh ; '-'
  09E2 36    		DB 036h ; '6'
  09E3 3F    		DB 03Fh ; '?'
  09E4 60    		DB 060h ; '`'
  09E5 80    		DB 080h 
  09E6 E0    		DB 0E0h 
  09E7 87    		DB 087h 
  09E8 01    		DB 001h 
  09E9 02    		DB 002h 
  09EA 01    		DB 001h 
  09EB 01    		DB 001h 
  09EC 3F    		DB 03Fh ; '?'
  09ED 01    		DB 001h 
  09EE 01    		DB 001h 
  09EF 07    		DB 007h 
  09F0 00    		DB 000h 
  09F1 00    		DB 000h 
  09F2 02    		DB 002h 
  09F3 00    		DB 000h 
  09F4 01    		DB 001h 
  09F5 00    		DB 000h 
  09F6 00    		DB 000h 
  09F7 00    		DB 000h 
  09F8 07    		DB 007h 
  09F9 02    		DB 002h 
  09FA 02    		DB 002h 
  09FB 07    		DB 007h 
  09FC 07    		DB 007h 
  09FD 07    		DB 007h 
  09FE 07    		DB 007h 
  09FF 07    		DB 007h 
  0A00 00    		DB 000h 
  0A01 00    		DB 000h 
  0A02 00    		DB 000h 
  0A03 00    		DB 000h 
  0A04 3F    		DB 03Fh ; '?'
  0A05 00    		DB 000h 
  0A06 00    		DB 000h 
  0A07 3F    		DB 03Fh ; '?'
  0A08 03    		DB 003h 
  0A09 01    		DB 001h 
  0A0A 3F    		DB 03Fh ; '?'
  0A0B 01    		DB 001h 
  0A0C 01    		DB 001h 
  0A0D 01    		DB 001h 
  0A0E 01    		DB 001h 
  0A0F 07    		DB 007h 
  0A10 02    		DB 002h 
  0A11 02    		DB 002h 
  0A12 05    		DB 005h 
  0A13 00    		DB 000h 
  0A14 00    		DB 000h 
  0A15 00    		DB 000h 
  0A16 00    		DB 000h 
  0A17 00    		DB 000h 
  0A18 05    		DB 005h 
  0A19 07    		DB 007h 
  0A1A 07    		DB 007h 
  0A1B 07    		DB 007h 
  0A1C 07    		DB 007h 
  0A1D 07    		DB 007h 
  0A1E 07    		DB 007h 
  0A1F 07    		DB 007h 
  0A20 00    		DB 000h 
  0A21 00    		DB 000h 
  0A22 3F    		DB 03Fh ; '?'
  0A23 00    		DB 000h 
  0A24 00    		DB 000h 
  0A25 00    		DB 000h 
  0A26 00    		DB 000h 
  0A27 3F    		DB 03Fh ; '?'
  0A28 01    		DB 001h 
  0A29 01    		DB 001h 
  0A2A 80    		DB 080h 
  0A2B 01    		DB 001h 
L0A2C:
  0A2C 0101  		AJMP L0801

  0A2E BF    		DB 0BFh 
  0A2F 07    		DB 007h 
  0A30 02    		DB 002h 
  0A31 02    		DB 002h 
  0A32 03    		DB 003h 
  0A33 02    		DB 002h 
  0A34 02    		DB 002h 
  0A35 02    		DB 002h 
  0A36 11    		DB 011h 
  0A37 00    		DB 000h 
  0A38 FF    		DB 0FFh 
  0A39 FF    		DB 0FFh 
  0A3A FF    		DB 0FFh 
  0A3B FF    		DB 0FFh 
  0A3C FF    		DB 0FFh 
  0A3D FF    		DB 0FFh 
  0A3E FF    		DB 0FFh 
  0A3F FF    		DB 0FFh 
  0A40 00    		DB 000h 
  0A41 09    		DB 009h 
  0A42 12    		DB 012h 
  0A43 12    		DB 012h 
  0A44 00    		DB 000h 
  0A45 2D    		DB 02Dh ; '-'
  0A46 12    		DB 012h 
  0A47 3F    		DB 03Fh ; '?'
  0A48 01    		DB 001h 
  0A49 01    		DB 001h 
  0A4A 01    		DB 001h 
  0A4B 01    		DB 001h 
  0A4C 01    		DB 001h 
  0A4D 01    		DB 001h 
  0A4E 01    		DB 001h 
  0A4F 07    		DB 007h 
  0A50 00    		DB 000h 
  0A51 00    		DB 000h 
  0A52 00    		DB 000h 
  0A53 00    		DB 000h 
  0A54 00    		DB 000h 
  0A55 00    		DB 000h 
  0A56 00    		DB 000h 
  0A57 00    		DB 000h 
  0A58 07    		DB 007h 
  0A59 07    		DB 007h 
  0A5A 07    		DB 007h 
  0A5B 07    		DB 007h 
  0A5C 07    		DB 007h 
  0A5D 07    		DB 007h 
  0A5E 07    		DB 007h 
  0A5F 07    		DB 007h 
  0A60 00    		NOP
  0A61 00    		NOP
  0A62 00    		NOP
  0A63 00    		NOP
  0A64 00    		NOP
  0A65 00    		NOP
  0A66 00    		NOP
  0A67 3F    		ADDC A, R7
  0A68 47    		ORL A, @R1
  0A69 E0    		MOVX A, @DPTR
  0A6A 80C0  		SJMP L0A2C

  0A6C 00    		DB 000h 
  0A6D 00    		DB 000h 
  0A6E 0F    		DB 00Fh 
  0A6F CA    		DB 0CAh 
  0A70 1E    		DB 01Eh 
  0A71 00    		DB 000h 
  0A72 00    		DB 000h 
L0A73:
  0A73 C0E0  		PUSH ACC
  0A75 C083  		PUSH DPH
  0A77 C082  		PUSH DPL
  0A79 C085  		PUSH 85h
  0A7B C084  		PUSH 84h
  0A7D C086  		PUSH 86h
  0A7F 758600		MOV 86h, #0h
  0A82 C0D0  		PUSH PSW
  0A84 75D000		MOV PSW, #0h
  0A87 C000  		PUSH 0h
  0A89 C001  		PUSH 1h
  0A8B C002  		PUSH 2h
  0A8D C003  		PUSH 3h
  0A8F C006  		PUSH 6h
  0A91 C007  		PUSH 7h
  0A93 90E678		MOV DPTR, #0E678h
  0A96 E0    		MOVX A, @DPTR
  0A97 30E206		JNB ACC.2, L0AA0
  0A9A 754106		MOV 41h, #6h
  0A9D 020B5D		LJMP L0B5D

L0AA0:
  0AA0 90E678		MOV DPTR, #0E678h
  0AA3 E0    		MOVX A, @DPTR
  0AA4 20E10C		JB ACC.1, L0AB3
  0AA7 E541  		MOV A, 41h
  0AA9 6402  		XRL A, #2h
  0AAB 6006  		JZ L0AB3
  0AAD 754107		MOV 41h, #7h
  0AB0 020B5D		LJMP L0B5D

L0AB3:
  0AB3 E541  		MOV A, 41h
  0AB5 24FE  		ADD A, #0FEh
  0AB7 605F  		JZ L0B18
  0AB9 14    		DEC A
  0ABA 6036  		JZ L0AF2
  0ABC 24FE  		ADD A, #0FEh
  0ABE 7003  		JNZ L0AC3
  0AC0 020B4E		LJMP L0B4E

L0AC3:
  0AC3 24FC  		ADD A, #0FCh
  0AC5 7003  		JNZ L0ACA
  0AC7 020B5A		LJMP L0B5A

L0ACA:
  0ACA 2408  		ADD A, #8h
  0ACC 6003  		JZ L0AD1
  0ACE 020B5D		LJMP L0B5D

L0AD1:
  0AD1 AB3D  		MOV R3, 3Dh
  0AD3 AA3E  		MOV R2, 3Eh
  0AD5 A93F  		MOV R1, 3Fh
  0AD7 AF40  		MOV R7, 40h
  0AD9 0540  		INC 40h
  0ADB 8F82  		MOV DPL, R7
  0ADD 758300		MOV DPH, #0h
  0AE0 120E92		LCALL L0E92
  0AE3 90E679		MOV DPTR, #0E679h
  0AE6 F0    		MOVX @DPTR, A
  0AE7 E540  		MOV A, 40h
  0AE9 653C  		XRL A, 3Ch
  0AEB 7070  		JNZ L0B5D
  0AED 754105		MOV 41h, #5h
  0AF0 806B  		SJMP L0B5D

L0AF2:
  0AF2 90E679		MOV DPTR, #0E679h
  0AF5 E0    		MOVX A, @DPTR
  0AF6 AB3D  		MOV R3, 3Dh
  0AF8 AA3E  		MOV R2, 3Eh
  0AFA A93F  		MOV R1, 3Fh
  0AFC AE40  		MOV R6, 40h
  0AFE 8E82  		MOV DPL, R6
  0B00 758300		MOV DPH, #0h
  0B03 120EBF		LCALL L0EBF
  0B06 754102		MOV 41h, #2h
  0B09 E53C  		MOV A, 3Ch
  0B0B 6401  		XRL A, #1h
  0B0D 704E  		JNZ L0B5D
  0B0F 90E678		MOV DPTR, #0E678h
  0B12 E0    		MOVX A, @DPTR
  0B13 4420  		ORL A, #20h
  0B15 F0    		MOVX @DPTR, A
  0B16 8045  		SJMP L0B5D

L0B18:
  0B18 E53C  		MOV A, 3Ch
  0B1A 24FE  		ADD A, #0FEh
  0B1C B54007		CJNE A, 40h, L0B26
  0B1F 90E678		MOV DPTR, #0E678h
  0B22 E0    		MOVX A, @DPTR
  0B23 4420  		ORL A, #20h
  0B25 F0    		MOVX @DPTR, A
L0B26:
  0B26 E53C  		MOV A, 3Ch
  0B28 14    		DEC A
  0B29 B5400A		CJNE A, 40h, L0B36
  0B2C 90E678		MOV DPTR, #0E678h
  0B2F E0    		MOVX A, @DPTR
  0B30 4440  		ORL A, #40h
  0B32 F0    		MOVX @DPTR, A
  0B33 754100		MOV 41h, #0h
L0B36:
  0B36 90E679		MOV DPTR, #0E679h
  0B39 E0    		MOVX A, @DPTR
  0B3A AB3D  		MOV R3, 3Dh
  0B3C AA3E  		MOV R2, 3Eh
  0B3E A93F  		MOV R1, 3Fh
  0B40 AE40  		MOV R6, 40h
  0B42 8E82  		MOV DPL, R6
  0B44 758300		MOV DPH, #0h
  0B47 120EBF		LCALL L0EBF
  0B4A 0540  		INC 40h
  0B4C 800F  		SJMP L0B5D

L0B4E:
  0B4E 90E678		MOV DPTR, #0E678h
  0B51 E0    		MOVX A, @DPTR
  0B52 4440  		ORL A, #40h
  0B54 F0    		MOVX @DPTR, A
  0B55 754100		MOV 41h, #0h
  0B58 8003  		SJMP L0B5D

L0B5A:
  0B5A 754100		MOV 41h, #0h
L0B5D:
  0B5D 5391DF		ANL 91h, #0DFh
  0B60 D007  		POP 7h
  0B62 D006  		POP 6h
  0B64 D003  		POP 3h
  0B66 D002  		POP 2h
  0B68 D001  		POP 1h
  0B6A D000  		POP 0h
  0B6C D0D0  		POP PSW
  0B6E D086  		POP 86h
  0B70 D084  		POP 84h
  0B72 D085  		POP 85h
  0B74 D082  		POP DPL
  0B76 D083  		POP DPH
  0B78 D0E0  		POP ACC
  0B7A 32    		RETI

L0B7B:
  0B7B E51D  		MOV A, 1Dh
  0B7D 6401  		XRL A, #1h
  0B7F 7031  		JNZ L0BB2
  0B81 751D02		MOV 1Dh, #2h
  0B84 90E6F5		MOV DPTR, #0E6F5h
  0B87 74FF  		MOV A, #0FFh
  0B89 F0    		MOVX @DPTR, A
  0B8A 90E604		MOV DPTR, #0E604h
  0B8D 7480  		MOV A, #80h
  0B8F F0    		MOVX @DPTR, A
  0B90 00    		NOP
  0B91 00    		NOP
  0B92 00    		NOP
  0B93 7402  		MOV A, #2h
  0B95 F0    		MOVX @DPTR, A
  0B96 00    		NOP
  0B97 00    		NOP
  0B98 00    		NOP
  0B99 7406  		MOV A, #6h
  0B9B F0    		MOVX @DPTR, A
  0B9C 00    		NOP
  0B9D 00    		NOP
  0B9E 00    		NOP
  0B9F E4    		CLR A
  0BA0 F0    		MOVX @DPTR, A
  0BA1 00    		NOP
  0BA2 00    		NOP
  0BA3 00    		NOP
  0BA4 FF    		MOV R7, A
  0BA5 FE    		MOV R6, A
L0BA6:
  0BA6 00    		NOP
  0BA7 0F    		INC R7
  0BA8 BF0001		CJNE R7, #0h, L0BAC
  0BAB 0E    		INC R6
L0BAC:
  0BAC BE03F7		CJNE R6, #3h, L0BA6
  0BAF BFE8F4		CJNE R7, #0E8h, L0BA6
L0BB2:
  0BB2 E5BB  		MOV A, 0BBh
  0BB4 30E725		JNB ACC.7, L0BDC
  0BB7 90E6F4		MOV DPTR, #0E6F4h
  0BBA E0    		MOVX A, @DPTR
  0BBB 30E01E		JNB ACC.0, L0BDC
  0BBE E5AC  		MOV A, 0ACh
  0BC0 20E019		JB ACC.0, L0BDC
L0BC3:
  0BC3 E5BB  		MOV A, 0BBh
  0BC5 30E7FB		JNB ACC.7, L0BC3
  0BC8 90E6D0		MOV DPTR, #0E6D0h
  0BCB 7428  		MOV A, #28h
  0BCD F0    		MOVX @DPTR, A
  0BCE 00    		NOP
  0BCF 00    		NOP
  0BD0 00    		NOP
  0BD1 E4    		CLR A
  0BD2 90E6D1		MOV DPTR, #0E6D1h
  0BD5 F0    		MOVX @DPTR, A
  0BD6 00    		NOP
  0BD7 00    		NOP
  0BD8 00    		NOP
  0BD9 75BB06		MOV 0BBh, #6h
L0BDC:
  0BDC 22    		RET

L0BDD:
  0BDD 121162		LCALL L1162
L0BE0:
  0BE0 E541  		MOV A, 41h
  0BE2 24FA  		ADD A, #0FAh
  0BE4 600E  		JZ L0BF4
  0BE6 14    		DEC A
  0BE7 6006  		JZ L0BEF
  0BE9 2407  		ADD A, #7h
  0BEB 70F3  		JNZ L0BE0
  0BED D3    		SETB C
  0BEE 22    		RET

L0BEF:
  0BEF E4    		CLR A
  0BF0 F541  		MOV 41h, A
  0BF2 D3    		SETB C
  0BF3 22    		RET

L0BF4:
  0BF4 E4    		CLR A
  0BF5 F541  		MOV 41h, A
  0BF7 D3    		SETB C
  0BF8 22    		RET

L0BF9:
  0BF9 32    		RETI

L0BFA:
  0BFA 32    		RETI

L0BFB:
  0BFB 32    		RETI

L0BFC:
  0BFC 32    		RETI

L0BFD:
  0BFD 32    		RETI

L0BFE:
  0BFE 32    		RETI

L0BFF:
  0BFF 32    		RETI

L0C00:
  0C00 021281		LJMP L1281

  0C03 00    		DB 000h 
  0C04 0212C7		LJMP L12C7

  0C07 00    		DB 000h 
  0C08 0212B1		LJMP L12B1

  0C0B 00    		DB 000h 
  0C0C 021299		LJMP L1299

  0C0F 00    		DB 000h 
  0C10 021089		LJMP L1089

  0C13 00    		DB 000h 
  0C14 0210C0		LJMP L10C0

  0C17 00    		DB 000h 
  0C18 02002A		LJMP L002A

  0C1B 00    		DB 000h 
  0C1C 020032		LJMP L0032

  0C1F 00    		DB 000h 
  0C20 020042		LJMP L0042

  0C23 00    		DB 000h 
  0C24 02004A		LJMP L004A

  0C27 00    		DB 000h 
  0C28 020052		LJMP L0052

  0C2B 00    		DB 000h 
  0C2C 020BF9		LJMP L0BF9

  0C2F 00    		DB 000h 
  0C30 020BFA		LJMP L0BFA

  0C33 00    		DB 000h 
  0C34 020BFB		LJMP L0BFB

  0C37 00    		DB 000h 
  0C38 020BFC		LJMP L0BFC

  0C3B 00    		DB 000h 
  0C3C 020BFD		LJMP L0BFD

  0C3F 00    		DB 000h 
  0C40 020BFE		LJMP L0BFE

  0C43 00    		DB 000h 
  0C44 020032		LJMP L0032

  0C47 00    		DB 000h 
  0C48 020BFF		LJMP L0BFF

  0C4B 00    		DB 000h 
  0C4C 020DFA		LJMP L0DFA

  0C4F 00    		DB 000h 
  0C50 020DFB		LJMP L0DFB

  0C53 00    		DB 000h 
  0C54 020DFC		LJMP L0DFC

  0C57 00    		DB 000h 
  0C58 020DFD		LJMP L0DFD

  0C5B 00    		DB 000h 
  0C5C 020DFE		LJMP L0DFE

  0C5F 00    		DB 000h 
  0C60 020DFF		LJMP L0DFF

  0C63 00    		DB 000h 
  0C64 020032		LJMP L0032

  0C67 00    		DB 000h 
  0C68 020032		LJMP L0032

  0C6B 00    		DB 000h 
  0C6C 020032		LJMP L0032

  0C6F 00    		DB 000h 
  0C70 021311		LJMP L1311

  0C73 00    		DB 000h 
  0C74 021312		LJMP L1312

  0C77 00    		DB 000h 
  0C78 021313		LJMP L1313

  0C7B 00    		DB 000h 
  0C7C 021314		LJMP L1314

  0C7F 00    		DB 000h 
  0C80 021315		LJMP L1315

  0C83 00    		DB 000h 
  0C84 021316		LJMP L1316

  0C87 00    		DB 000h 
  0C88 021317		LJMP L1317

  0C8B 00    		DB 000h 
  0C8C 021318		LJMP L1318

  0C8F 00    		DB 000h 
  0C90 021319		LJMP L1319

  0C93 00    		DB 000h 
  0C94 02131A		LJMP L131A

  0C97 00    		DB 000h 
  0C98 02131B		LJMP L131B

  0C9B 00    		DB 000h 
  0C9C 02131C		LJMP L131C

  0C9F 00    		DB 000h 
  0CA0 02131D		LJMP L131D

  0CA3 00    		DB 000h 
  0CA4 02131E		LJMP L131E

  0CA7 00    		DB 000h 
  0CA8 02131F		LJMP L131F

  0CAB 00    		DB 000h 
  0CAC 021320		LJMP L1320

  0CAF 00    		DB 000h 
  0CB0 021321		LJMP L1321

  0CB3 00    		DB 000h 
  0CB4 021322		LJMP L1322

  0CB7 00    		DB 000h 
L0CB8:
  0CB8 90E600		MOV DPTR, #0E600h
  0CBB 7410  		MOV A, #10h
  0CBD F0    		MOVX @DPTR, A
  0CBE 120F18		LCALL L0F18
  0CC1 00    		NOP
  0CC2 00    		NOP
  0CC3 00    		NOP
  0CC4 90E612		MOV DPTR, #0E612h
  0CC7 74A0  		MOV A, #0A0h
  0CC9 F0    		MOVX @DPTR, A
  0CCA 00    		NOP
  0CCB 00    		NOP
  0CCC 00    		NOP
  0CCD E4    		CLR A
  0CCE 90E613		MOV DPTR, #0E613h
  0CD1 F0    		MOVX @DPTR, A
  0CD2 00    		NOP
  0CD3 00    		NOP
  0CD4 00    		NOP
  0CD5 90E614		MOV DPTR, #0E614h
  0CD8 74E0  		MOV A, #0E0h
  0CDA F0    		MOVX @DPTR, A
  0CDB 00    		NOP
  0CDC 00    		NOP
  0CDD 00    		NOP
  0CDE E4    		CLR A
  0CDF 90E615		MOV DPTR, #0E615h
  0CE2 F0    		MOVX @DPTR, A
  0CE3 00    		NOP
  0CE4 00    		NOP
  0CE5 00    		NOP
  0CE6 90E604		MOV DPTR, #0E604h
  0CE9 7480  		MOV A, #80h
  0CEB F0    		MOVX @DPTR, A
  0CEC 00    		NOP
  0CED 00    		NOP
  0CEE 00    		NOP
  0CEF 7402  		MOV A, #2h
  0CF1 F0    		MOVX @DPTR, A
  0CF2 00    		NOP
  0CF3 00    		NOP
  0CF4 00    		NOP
  0CF5 7406  		MOV A, #6h
  0CF7 F0    		MOVX @DPTR, A
  0CF8 00    		NOP
  0CF9 00    		NOP
  0CFA 00    		NOP
  0CFB E4    		CLR A
  0CFC F0    		MOVX @DPTR, A
  0CFD 00    		NOP
  0CFE 00    		NOP
  0CFF 00    		NOP
  0D00 90E618		MOV DPTR, #0E618h
  0D03 04    		INC A
  0D04 F0    		MOVX @DPTR, A
  0D05 00    		NOP
  0D06 00    		NOP
  0D07 00    		NOP
  0D08 7411  		MOV A, #11h
  0D0A F0    		MOVX @DPTR, A
  0D0B 00    		NOP
  0D0C 00    		NOP
  0D0D 00    		NOP
  0D0E 90E61A		MOV DPTR, #0E61Ah
  0D11 7409  		MOV A, #9h
  0D13 F0    		MOVX @DPTR, A
  0D14 00    		NOP
  0D15 00    		NOP
  0D16 00    		NOP
  0D17 90E6D2		MOV DPTR, #0E6D2h
  0D1A 7402  		MOV A, #2h
  0D1C F0    		MOVX @DPTR, A
  0D1D 00    		NOP
  0D1E 00    		NOP
  0D1F 00    		NOP
  0D20 90E6E2		MOV DPTR, #0E6E2h
  0D23 14    		DEC A
  0D24 F0    		MOVX @DPTR, A
  0D25 00    		NOP
  0D26 00    		NOP
  0D27 00    		NOP
  0D28 E4    		CLR A
  0D29 90E671		MOV DPTR, #0E671h
  0D2C F0    		MOVX @DPTR, A
  0D2D 75B4FF		MOV 0B4h, #0FFh
  0D30 90E670		MOV DPTR, #0E670h
  0D33 F0    		MOVX @DPTR, A
  0D34 75B280		MOV 0B2h, #80h
  0D37 C2A4  		CLR P2.4
  0D39 C2A3  		CLR P2.3
  0D3B C2A2  		CLR P2.2
  0D3D C2A7  		CLR P2.7
  0D3F C2A6  		CLR P2.6
  0D41 C2A5  		CLR P2.5
  0D43 F51D  		MOV 1Dh, A
  0D45 F51A  		MOV 1Ah, A
  0D47 121309		LCALL L1309
  0D4A 90E67A		MOV DPTR, #0E67Ah
  0D4D E0    		MOVX A, @DPTR
  0D4E 4401  		ORL A, #1h
  0D50 F0    		MOVX @DPTR, A
  0D51 22    		RET

L0D52:
  0D52 787F  		MOV R0, #7Fh
  0D54 E4    		CLR A
L0D55:
  0D55 F6    		MOV @R0, A
  0D56 D8FD  		DJNZ R0, L0D55
  0D58 758141		MOV SP, #41h
  0D5B 020D99		LJMP L0D99

L0D5E:
  0D5E 020773		LJMP L0773

L0D61:
  0D61 E4    		CLR A
  0D62 93    		MOVC A, @A+DPTR
  0D63 A3    		INC DPTR
  0D64 F8    		MOV R0, A
L0D65:
  0D65 E4    		CLR A
  0D66 93    		MOVC A, @A+DPTR
  0D67 A3    		INC DPTR
  0D68 4003  		JC L0D6D
  0D6A F6    		MOV @R0, A
  0D6B 8001  		SJMP L0D6E

L0D6D:
  0D6D F2    		MOVX @R0, A
L0D6E:
  0D6E 08    		INC R0
  0D6F DFF4  		DJNZ R7, L0D65
  0D71 8029  		SJMP L0D9C

L0D73:
  0D73 E4    		CLR A
  0D74 93    		MOVC A, @A+DPTR
  0D75 A3    		INC DPTR
  0D76 F8    		MOV R0, A
  0D77 5407  		ANL A, #7h
  0D79 240C  		ADD A, #0Ch
  0D7B C8    		XCH A, R0
  0D7C C3    		CLR C
  0D7D 33    		RLC A
  0D7E C4    		SWAP A
  0D7F 540F  		ANL A, #0Fh
  0D81 4420  		ORL A, #20h
  0D83 C8    		XCH A, R0
  0D84 83    		MOVC A, @A+PC
  0D85 4004  		JC L0D8B
  0D87 F4    		CPL A
  0D88 56    		ANL A, @R0
  0D89 8001  		SJMP L0D8C

L0D8B:
  0D8B 46    		ORL A, @R0
L0D8C:
  0D8C F6    		MOV @R0, A
  0D8D DFE4  		DJNZ R7, L0D73
  0D8F 800B  		SJMP L0D9C

  0D91 01    		DB 001h 
  0D92 02    		DB 002h 
  0D93 04    		DB 004h 
  0D94 08    		DB 008h 
  0D95 10    		DB 010h 
  0D96 20    		DB 020h ; ' '
  0D97 40    		DB 040h ; '@'
  0D98 80    		DB 080h 
L0D99:
  0D99 90095E		MOV DPTR, #095Eh
L0D9C:
  0D9C E4    		CLR A
  0D9D 7E01  		MOV R6, #1h
  0D9F 93    		MOVC A, @A+DPTR
  0DA0 60BC  		JZ L0D5E
  0DA2 A3    		INC DPTR
  0DA3 FF    		MOV R7, A
  0DA4 543F  		ANL A, #3Fh
  0DA6 30E509		JNB ACC.5, L0DB2
  0DA9 541F  		ANL A, #1Fh
  0DAB FE    		MOV R6, A
  0DAC E4    		CLR A
  0DAD 93    		MOVC A, @A+DPTR
  0DAE A3    		INC DPTR
  0DAF 6001  		JZ L0DB2
  0DB1 0E    		INC R6
L0DB2:
  0DB2 CF    		XCH A, R7
  0DB3 54C0  		ANL A, #0C0h
  0DB5 25E0  		ADD A, ACC
  0DB7 60A8  		JZ L0D61
  0DB9 40B8  		JC L0D73
  0DBB E4    		CLR A
  0DBC 93    		MOVC A, @A+DPTR
  0DBD A3    		INC DPTR
L0DBE:
  0DBE FA    		MOV R2, A
  0DBF E4    		CLR A
  0DC0 93    		MOVC A, @A+DPTR
  0DC1 A3    		INC DPTR
  0DC2 F8    		MOV R0, A
L0DC3:
  0DC3 E4    		CLR A
  0DC4 93    		MOVC A, @A+DPTR
  0DC5 A3    		INC DPTR
  0DC6 C8    		XCH A, R0
  0DC7 C582  		XCH A, DPL
  0DC9 C8    		XCH A, R0
  0DCA CA    		XCH A, R2
  0DCB C583  		XCH A, DPH
  0DCD CA    		XCH A, R2
  0DCE F0    		MOVX @DPTR, A
  0DCF A3    		INC DPTR
  0DD0 C8    		XCH A, R0
  0DD1 C582  		XCH A, DPL
  0DD3 C8    		XCH A, R0
  0DD4 CA    		XCH A, R2
  0DD5 C583  		XCH A, DPH
  0DD7 CA    		XCH A, R2
  0DD8 DFE9  		DJNZ R7, L0DC3
  0DDA DEE7  		DJNZ R6, L0DC3
  0DDC 80BE  		SJMP L0D9C

L0DDE:
  0DDE 1211C8		LCALL L11C8
L0DE1:
  0DE1 E541  		MOV A, 41h
  0DE3 24FA  		ADD A, #0FAh
  0DE5 600E  		JZ L0DF5
  0DE7 14    		DEC A
  0DE8 6006  		JZ L0DF0
  0DEA 2407  		ADD A, #7h
  0DEC 70F3  		JNZ L0DE1
  0DEE D3    		SETB C
  0DEF 22    		RET

L0DF0:
  0DF0 E4    		CLR A
  0DF1 F541  		MOV 41h, A
  0DF3 D3    		SETB C
  0DF4 22    		RET

L0DF5:
  0DF5 E4    		CLR A
  0DF6 F541  		MOV 41h, A
  0DF8 D3    		SETB C
  0DF9 22    		RET

L0DFA:
  0DFA 32    		RETI

L0DFB:
  0DFB 32    		RETI

L0DFC:
  0DFC 32    		RETI

L0DFD:
  0DFD 32    		RETI

L0DFE:
  0DFE 32    		RETI

L0DFF:
  0DFF 32    		RETI

  0E00 12    		DB 012h 
  0E01 01    		DB 001h 
  0E02 00    		DB 000h 
  0E03 02    		DB 002h 
  0E04 00    		DB 000h 
L0E05:
  0E05 00    		NOP
  0E06 00    		NOP
  0E07 40B5  		JC L0DBE
  0E09 04    		INC A
  0E0A 22    		RET

  0E0B 60    		DB 060h ; '`'
  0E0C 00    		DB 000h 
  0E0D 00    		DB 000h 
  0E0E 01    		DB 001h 
  0E0F 02    		DB 002h 
  0E10 00    		DB 000h 
  0E11 01    		DB 001h 
  0E12 0A    		DB 00Ah 
  0E13 06    		DB 006h 
  0E14 00    		DB 000h 
  0E15 02    		DB 002h 
  0E16 00    		DB 000h 
  0E17 00    		DB 000h 
  0E18 00    		DB 000h 
  0E19 40    		DB 040h ; '@'
  0E1A 01    		DB 001h 
  0E1B 00    		DB 000h 
  0E1C 09    		DB 009h 
  0E1D 02    		DB 002h 
  0E1E 20    		DB 020h ; ' '
  0E1F 00    		DB 000h 
  0E20 01    		DB 001h 
  0E21 01    		DB 001h 
  0E22 00    		DB 000h 
  0E23 80    		DB 080h 
  0E24 32    		DB 032h ; '2'
  0E25 09    		DB 009h 
  0E26 04    		DB 004h 
  0E27 00    		DB 000h 
  0E28 00    		DB 000h 
  0E29 02    		DB 002h 
  0E2A FF    		DB 0FFh 
  0E2B 00    		DB 000h 
  0E2C 00    		DB 000h 
  0E2D 00    		DB 000h 
  0E2E 07    		DB 007h 
  0E2F 05    		DB 005h 
  0E30 02    		DB 002h 
  0E31 02    		DB 002h 
  0E32 00    		DB 000h 
  0E33 02    		DB 002h 
  0E34 00    		DB 000h 
  0E35 07    		DB 007h 
  0E36 05    		DB 005h 
  0E37 86    		DB 086h 
  0E38 02    		DB 002h 
  0E39 00    		DB 000h 
  0E3A 02    		DB 002h 
  0E3B 00    		DB 000h 
  0E3C 09    		DB 009h 
  0E3D 02    		DB 002h 
  0E3E 20    		DB 020h ; ' '
  0E3F 00    		DB 000h 
  0E40 01    		DB 001h 
  0E41 01    		DB 001h 
  0E42 00    		DB 000h 
  0E43 80    		DB 080h 
  0E44 32    		DB 032h ; '2'
  0E45 09    		DB 009h 
  0E46 04    		DB 004h 
  0E47 00    		DB 000h 
  0E48 00    		DB 000h 
  0E49 04    		DB 004h 
  0E4A FF    		DB 0FFh 
  0E4B 00    		DB 000h 
  0E4C 00    		DB 000h 
  0E4D 00    		DB 000h 
  0E4E 07    		DB 007h 
  0E4F 05    		DB 005h 
  0E50 02    		DB 002h 
  0E51 02    		DB 002h 
  0E52 40    		DB 040h ; '@'
  0E53 00    		DB 000h 
  0E54 00    		DB 000h 
  0E55 07    		DB 007h 
  0E56 05    		DB 005h 
  0E57 86    		DB 086h 
  0E58 02    		DB 002h 
  0E59 40    		DB 040h ; '@'
  0E5A 00    		DB 000h 
  0E5B 00    		DB 000h 
  0E5C 04    		DB 004h 
  0E5D 03    		DB 003h 
  0E5E 09    		DB 009h 
  0E5F 04    		DB 004h 
  0E60 0E    		DB 00Eh 
  0E61 03    		DB 003h 
  0E62 4F    		DB 04Fh ; 'O'
  0E63 00    		DB 000h 
  0E64 44    		DB 044h ; 'D'
  0E65 00    		DB 000h 
  0E66 4D    		DB 04Dh ; 'M'
  0E67 00    		DB 000h 
  0E68 20    		DB 020h ; ' '
  0E69 00    		DB 000h 
  0E6A 20    		DB 020h ; ' '
  0E6B 00    		DB 000h 
  0E6C 20    		DB 020h ; ' '
  0E6D 00    		DB 000h 
  0E6E 22    		DB 022h ; '"'
  0E6F 03    		DB 003h 
  0E70 48    		DB 048h ; 'H'
  0E71 00    		DB 000h 
  0E72 61    		DB 061h ; 'a'
  0E73 00    		DB 000h 
  0E74 6E    		DB 06Eh ; 'n'
  0E75 00    		DB 000h 
  0E76 74    		DB 074h ; 't'
  0E77 00    		DB 000h 
  0E78 65    		DB 065h ; 'e'
  0E79 00    		DB 000h 
  0E7A 6B    		DB 06Bh ; 'k'
  0E7B 00    		DB 000h 
  0E7C 44    		DB 044h ; 'D'
  0E7D 00    		DB 000h 
  0E7E 53    		DB 053h ; 'S'
  0E7F 00    		DB 000h 
  0E80 4F    		DB 04Fh ; 'O'
  0E81 00    		DB 000h 
  0E82 36    		DB 036h ; '6'
  0E83 00    		DB 000h 
  0E84 30    		DB 030h ; '0'
  0E85 00    		DB 000h 
  0E86 32    		DB 032h ; '2'
  0E87 00    		DB 000h 
  0E88 32    		DB 032h ; '2'
  0E89 00    		DB 000h 
  0E8A 42    		DB 042h ; 'B'
  0E8B 00    		DB 000h 
  0E8C 45    		DB 045h ; 'E'
  0E8D 00    		DB 000h 
  0E8E 20    		DB 020h ; ' '
  0E8F 00    		DB 000h 
  0E90 00    		DB 000h 
  0E91 00    		DB 000h 
L0E92:
  0E92 BB010C		CJNE R3, #1h, L0EA1
  0E95 E582  		MOV A, DPL
  0E97 29    		ADD A, R1
  0E98 F582  		MOV DPL, A
  0E9A E583  		MOV A, DPH
  0E9C 3A    		ADDC A, R2
  0E9D F583  		MOV DPH, A
  0E9F E0    		MOVX A, @DPTR
  0EA0 22    		RET

L0EA1:
  0EA1 5006  		JNC L0EA9
  0EA3 E9    		MOV A, R1
  0EA4 2582  		ADD A, DPL
  0EA6 F8    		MOV R0, A
  0EA7 E6    		MOV A, @R0
  0EA8 22    		RET

L0EA9:
  0EA9 BBFE06		CJNE R3, #0FEh, L0EB2
  0EAC E9    		MOV A, R1
  0EAD 2582  		ADD A, DPL
  0EAF F8    		MOV R0, A
  0EB0 E2    		MOVX A, @R0
  0EB1 22    		RET

L0EB2:
  0EB2 E582  		MOV A, DPL
  0EB4 29    		ADD A, R1
  0EB5 F582  		MOV DPL, A
  0EB7 E583  		MOV A, DPH
  0EB9 3A    		ADDC A, R2
  0EBA F583  		MOV DPH, A
  0EBC E4    		CLR A
  0EBD 93    		MOVC A, @A+DPTR
  0EBE 22    		RET

L0EBF:
  0EBF F8    		MOV R0, A
  0EC0 BB010D		CJNE R3, #1h, L0ED0
  0EC3 E582  		MOV A, DPL
  0EC5 29    		ADD A, R1
  0EC6 F582  		MOV DPL, A
  0EC8 E583  		MOV A, DPH
  0ECA 3A    		ADDC A, R2
  0ECB F583  		MOV DPH, A
  0ECD E8    		MOV A, R0
  0ECE F0    		MOVX @DPTR, A
  0ECF 22    		RET

L0ED0:
  0ED0 5006  		JNC L0ED8
  0ED2 E9    		MOV A, R1
  0ED3 2582  		ADD A, DPL
  0ED5 C8    		XCH A, R0
  0ED6 F6    		MOV @R0, A
  0ED7 22    		RET

L0ED8:
  0ED8 BBFE05		CJNE R3, #0FEh, L0EE0
  0EDB E9    		MOV A, R1
  0EDC 2582  		ADD A, DPL
  0EDE C8    		XCH A, R0
  0EDF F2    		MOVX @R0, A
L0EE0:
  0EE0 22    		RET

L0EE1:
  0EE1 EB    		MOV A, R3
  0EE2 9F    		SUBB A, R7
  0EE3 F5F0  		MOV B, A
  0EE5 EA    		MOV A, R2
  0EE6 9E    		SUBB A, R6
  0EE7 42F0  		ORL B, A
  0EE9 E9    		MOV A, R1
  0EEA 9D    		SUBB A, R5
  0EEB 42F0  		ORL B, A
  0EED E8    		MOV A, R0
  0EEE 9C    		SUBB A, R4
  0EEF 45F0  		ORL A, B
  0EF1 22    		RET

L0EF2:
  0EF2 D083  		POP DPH
  0EF4 D082  		POP DPL
  0EF6 F8    		MOV R0, A
L0EF7:
  0EF7 E4    		CLR A
  0EF8 93    		MOVC A, @A+DPTR
  0EF9 7012  		JNZ L0F0D
  0EFB 7401  		MOV A, #1h
  0EFD 93    		MOVC A, @A+DPTR
  0EFE 700D  		JNZ L0F0D
  0F00 A3    		INC DPTR
  0F01 A3    		INC DPTR
L0F02:
  0F02 93    		MOVC A, @A+DPTR
  0F03 F8    		MOV R0, A
  0F04 7401  		MOV A, #1h
  0F06 93    		MOVC A, @A+DPTR
  0F07 F582  		MOV DPL, A
  0F09 8883  		MOV DPH, R0
  0F0B E4    		CLR A
  0F0C 73    		JMP @A+DPTR

L0F0D:
  0F0D 7402  		MOV A, #2h
  0F0F 93    		MOVC A, @A+DPTR
  0F10 68    		XRL A, R0
  0F11 60EF  		JZ L0F02
  0F13 A3    		INC DPTR
  0F14 A3    		INC DPTR
  0F15 A3    		INC DPTR
  0F16 80DF  		SJMP L0EF7

L0F18:
  0F18 90E601		MOV DPTR, #0E601h
  0F1B 74CA  		MOV A, #0CAh
  0F1D F0    		MOVX @DPTR, A
  0F1E 90E6F5		MOV DPTR, #0E6F5h
  0F21 74FF  		MOV A, #0FFh
  0F23 F0    		MOVX @DPTR, A
  0F24 90E080		MOV DPTR, #0E080h
  0F27 E0    		MOVX A, @DPTR
  0F28 90E6F3		MOV DPTR, #0E6F3h
  0F2B F0    		MOVX @DPTR, A
  0F2C 90E081		MOV DPTR, #0E081h
  0F2F E0    		MOVX A, @DPTR
  0F30 90E6C3		MOV DPTR, #0E6C3h
  0F33 F0    		MOVX @DPTR, A
  0F34 90E082		MOV DPTR, #0E082h
  0F37 E0    		MOVX A, @DPTR
  0F38 90E6C1		MOV DPTR, #0E6C1h
  0F3B F0    		MOVX @DPTR, A
  0F3C 90E083		MOV DPTR, #0E083h
  0F3F E0    		MOVX A, @DPTR
  0F40 90E6C2		MOV DPTR, #0E6C2h
  0F43 F0    		MOVX @DPTR, A
  0F44 90E085		MOV DPTR, #0E085h
  0F47 E0    		MOVX A, @DPTR
  0F48 90E6C0		MOV DPTR, #0E6C0h
  0F4B F0    		MOVX @DPTR, A
  0F4C 90E086		MOV DPTR, #0E086h
  0F4F E0    		MOVX A, @DPTR
  0F50 90E6F4		MOV DPTR, #0E6F4h
  0F53 F0    		MOVX @DPTR, A
  0F54 75AF07		MOV 0AFh, #7h
  0F57 74E0  		MOV A, #0E0h
  0F59 F59A  		MOV 9Ah, A
  0F5B 7400  		MOV A, #0h
  0F5D F59B  		MOV 9Bh, A
  0F5F 759DE4		MOV 9Dh, #0E4h
  0F62 E4    		CLR A
  0F63 F59E  		MOV 9Eh, A
  0F65 FF    		MOV R7, A
L0F66:
  0F66 90E67B		MOV DPTR, #0E67Bh
  0F69 E0    		MOVX A, @DPTR
  0F6A 90E67C		MOV DPTR, #0E67Ch
  0F6D F0    		MOVX @DPTR, A
  0F6E 0F    		INC R7
  0F6F BF80F4		CJNE R7, #80h, L0F66
  0F72 22    		RET

L0F73:
  0F73 AB07  		MOV R3, 7h
  0F75 AA06  		MOV R2, 6h
  0F77 AC05  		MOV R4, 5h
  0F79 E4    		CLR A
  0F7A FD    		MOV R5, A
  0F7B E51C  		MOV A, 1Ch
  0F7D 6010  		JZ L0F8F
  0F7F EA    		MOV A, R2
  0F80 7E00  		MOV R6, #0h
  0F82 0D    		INC R5
  0F83 EE    		MOV A, R6
  0F84 2407  		ADD A, #7h
  0F86 F582  		MOV DPL, A
  0F88 E4    		CLR A
  0F89 34E1  		ADDC A, #0E1h
  0F8B F583  		MOV DPH, A
  0F8D EA    		MOV A, R2
  0F8E F0    		MOVX @DPTR, A
L0F8F:
  0F8F EB    		MOV A, R3
  0F90 AE05  		MOV R6, 5h
  0F92 0D    		INC R5
  0F93 7407  		MOV A, #7h
  0F95 2E    		ADD A, R6
  0F96 F582  		MOV DPL, A
  0F98 E4    		CLR A
  0F99 34E1  		ADDC A, #0E1h
  0F9B F583  		MOV DPH, A
  0F9D EB    		MOV A, R3
  0F9E F0    		MOVX @DPTR, A
  0F9F AF05  		MOV R7, 5h
  0FA1 0D    		INC R5
  0FA2 7407  		MOV A, #7h
  0FA4 2F    		ADD A, R7
  0FA5 F582  		MOV DPL, A
  0FA7 E4    		CLR A
  0FA8 34E1  		ADDC A, #0E1h
  0FAA F583  		MOV DPH, A
  0FAC EC    		MOV A, R4
  0FAD F0    		MOVX @DPTR, A
  0FAE 7AE1  		MOV R2, #0E1h
  0FB0 7B07  		MOV R3, #7h
  0FB2 AF19  		MOV R7, 19h
  0FB4 120DDE		LCALL L0DDE
  0FB7 AF19  		MOV R7, 19h
  0FB9 1210F7		LCALL L10F7
  0FBC 22    		RET

L0FBD:
  0FBD 8E36  		MOV 36h, R6
  0FBF 8F37  		MOV 37h, R7
  0FC1 8D38  		MOV 38h, R5
  0FC3 8A39  		MOV 39h, R2
  0FC5 8B3A  		MOV 3Ah, R3
  0FC7 E4    		CLR A
  0FC8 FD    		MOV R5, A
  0FC9 E51C  		MOV A, 1Ch
  0FCB 6012  		JZ L0FDF
  0FCD E536  		MOV A, 36h
  0FCF FF    		MOV R7, A
  0FD0 7E00  		MOV R6, #0h
  0FD2 0D    		INC R5
  0FD3 EE    		MOV A, R6
  0FD4 2407  		ADD A, #7h
  0FD6 F582  		MOV DPL, A
  0FD8 E4    		CLR A
  0FD9 34E1  		ADDC A, #0E1h
  0FDB F583  		MOV DPH, A
  0FDD EF    		MOV A, R7
  0FDE F0    		MOVX @DPTR, A
L0FDF:
  0FDF E537  		MOV A, 37h
  0FE1 AE05  		MOV R6, 5h
  0FE3 0D    		INC R5
  0FE4 7407  		MOV A, #7h
  0FE6 2E    		ADD A, R6
  0FE7 F582  		MOV DPL, A
  0FE9 E4    		CLR A
  0FEA 34E1  		ADDC A, #0E1h
  0FEC F583  		MOV DPH, A
  0FEE E537  		MOV A, 37h
  0FF0 F0    		MOVX @DPTR, A
  0FF1 7AE1  		MOV R2, #0E1h
  0FF3 7B07  		MOV R3, #7h
  0FF5 AF19  		MOV R7, 19h
  0FF7 120DDE		LCALL L0DDE
  0FFA AB3A  		MOV R3, 3Ah
  0FFC AA39  		MOV R2, 39h
  0FFE AD38  		MOV R5, 38h
  1000 AF19  		MOV R7, 19h
  1002 120BDD		LCALL L0BDD
  1005 22    		RET

L1006:
  1006 8E2D  		MOV 2Dh, R6
  1008 8F2E  		MOV 2Eh, R7
  100A 90E600		MOV DPTR, #0E600h
  100D E0    		MOVX A, @DPTR
  100E 5418  		ANL A, #18h
  1010 7012  		JNZ L1024
  1012 E52E  		MOV A, 2Eh
  1014 2401  		ADD A, #1h
  1016 FF    		MOV R7, A
  1017 E4    		CLR A
  1018 352D  		ADDC A, 2Dh
  101A C3    		CLR C
  101B 13    		RRC A
  101C F52D  		MOV 2Dh, A
  101E EF    		MOV A, R7
  101F 13    		RRC A
  1020 F52E  		MOV 2Eh, A
  1022 8015  		SJMP L1039

L1024:
  1024 90E600		MOV DPTR, #0E600h
  1027 E0    		MOVX A, @DPTR
  1028 5418  		ANL A, #18h
  102A FF    		MOV R7, A
  102B BF100B		CJNE R7, #10h, L1039
  102E E52E  		MOV A, 2Eh
  1030 25E0  		ADD A, ACC
  1032 F52E  		MOV 2Eh, A
  1034 E52D  		MOV A, 2Dh
  1036 33    		RLC A
  1037 F52D  		MOV 2Dh, A
L1039:
  1039 E52E  		MOV A, 2Eh
  103B 152E  		DEC 2Eh
  103D AE2D  		MOV R6, 2Dh
  103F 7002  		JNZ L1043
  1041 152D  		DEC 2Dh
L1043:
  1043 4E    		ORL A, R6
  1044 6005  		JZ L104B
  1046 120017		LCALL L0017
  1049 80EE  		SJMP L1039

L104B:
  104B 22    		RET

L104C:
  104C 90E680		MOV DPTR, #0E680h
  104F E0    		MOVX A, @DPTR
  1050 30E718		JNB ACC.7, L106B
  1053 00    		NOP
  1054 00    		NOP
  1055 00    		NOP
  1056 90E624		MOV DPTR, #0E624h
  1059 7402  		MOV A, #2h
  105B F0    		MOVX @DPTR, A
  105C 00    		NOP
  105D 00    		NOP
  105E 00    		NOP
  105F E4    		CLR A
  1060 90E625		MOV DPTR, #0E625h
  1063 F0    		MOVX @DPTR, A
  1064 00    		NOP
  1065 00    		NOP
  1066 00    		NOP
  1067 D205  		SETB 5h
  1069 8016  		SJMP L1081

L106B:
  106B 00    		NOP
  106C 00    		NOP
  106D 00    		NOP
  106E E4    		CLR A
  106F 90E624		MOV DPTR, #0E624h
  1072 F0    		MOVX @DPTR, A
  1073 00    		NOP
  1074 00    		NOP
  1075 00    		NOP
  1076 90E625		MOV DPTR, #0E625h
  1079 7440  		MOV A, #40h
  107B F0    		MOVX @DPTR, A
  107C 00    		NOP
  107D 00    		NOP
  107E 00    		NOP
  107F C205  		CLR 5h
L1081:
  1081 90E6BA		MOV DPTR, #0E6BAh
  1084 E0    		MOVX A, @DPTR
  1085 F51B  		MOV 1Bh, A
  1087 D3    		SETB C
  1088 22    		RET

L1089:
  1089 C0E0  		PUSH ACC
  108B C083  		PUSH DPH
  108D C082  		PUSH DPL
  108F 90E680		MOV DPTR, #0E680h
  1092 E0    		MOVX A, @DPTR
  1093 30E70E		JNB ACC.7, L10A4
  1096 850A0E		MOV 0Eh, 0Ah
  1099 850B0F		MOV 0Fh, 0Bh
  109C 851210		MOV 10h, 12h
  109F 851311		MOV 11h, 13h
  10A2 800C  		SJMP L10B0

L10A4:
  10A4 85120E		MOV 0Eh, 12h
  10A7 85130F		MOV 0Fh, 13h
  10AA 850A10		MOV 10h, 0Ah
  10AD 850B11		MOV 11h, 0Bh
L10B0:
  10B0 5391EF		ANL 91h, #0EFh
  10B3 90E65D		MOV DPTR, #0E65Dh
  10B6 7410  		MOV A, #10h
  10B8 F0    		MOVX @DPTR, A
  10B9 D082  		POP DPL
  10BB D083  		POP DPH
  10BD D0E0  		POP ACC
  10BF 32    		RETI

L10C0:
  10C0 C0E0  		PUSH ACC
  10C2 C083  		PUSH DPH
  10C4 C082  		PUSH DPL
  10C6 90E680		MOV DPTR, #0E680h
  10C9 E0    		MOVX A, @DPTR
  10CA 30E70E		JNB ACC.7, L10DB
  10CD 850A0E		MOV 0Eh, 0Ah
  10D0 850B0F		MOV 0Fh, 0Bh
  10D3 851210		MOV 10h, 12h
  10D6 851311		MOV 11h, 13h
  10D9 800C  		SJMP L10E7

L10DB:
  10DB 85120E		MOV 0Eh, 12h
  10DE 85130F		MOV 0Fh, 13h
  10E1 850A10		MOV 10h, 0Ah
  10E4 850B11		MOV 11h, 0Bh
L10E7:
  10E7 5391EF		ANL 91h, #0EFh
  10EA 90E65D		MOV DPTR, #0E65Dh
  10ED 7420  		MOV A, #20h
  10EF F0    		MOVX @DPTR, A
  10F0 D082  		POP DPL
  10F2 D083  		POP DPH
  10F4 D0E0  		POP ACC
  10F6 32    		RETI

L10F7:
  10F7 90E678		MOV DPTR, #0E678h
  10FA E0    		MOVX A, @DPTR
  10FB 20E6F9		JB ACC.6, L10F7
  10FE C2E9  		CLR 0E9h
L1100:
  1100 90E678		MOV DPTR, #0E678h
  1103 E0    		MOVX A, @DPTR
  1104 4480  		ORL A, #80h
  1106 F0    		MOVX @DPTR, A
  1107 EF    		MOV A, R7
  1108 25E0  		ADD A, ACC
  110A 90E679		MOV DPTR, #0E679h
  110D F0    		MOVX @DPTR, A
L110E:
  110E 90E678		MOV DPTR, #0E678h
  1111 E0    		MOVX A, @DPTR
  1112 30E0F9		JNB ACC.0, L110E
  1115 90E678		MOV DPTR, #0E678h
  1118 E0    		MOVX A, @DPTR
  1119 4440  		ORL A, #40h
  111B F0    		MOVX @DPTR, A
L111C:
  111C 90E678		MOV DPTR, #0E678h
  111F E0    		MOVX A, @DPTR
  1120 20E6F9		JB ACC.6, L111C
  1123 90E678		MOV DPTR, #0E678h
  1126 E0    		MOVX A, @DPTR
  1127 30E1D6		JNB ACC.1, L1100
  112A D2E9  		SETB 0E9h
  112C 22    		RET

L112D:
  112D 8E36  		MOV 36h, R6
  112F 8F37  		MOV 37h, R7
  1131 8D38  		MOV 38h, R5
  1133 8A39  		MOV 39h, R2
  1135 8B3A  		MOV 3Ah, R3
  1137 E4    		CLR A
  1138 F53B  		MOV 3Bh, A
L113A:
  113A E53B  		MOV A, 3Bh
  113C C3    		CLR C
  113D 9538  		SUBB A, 38h
  113F 5020  		JNC L1161
  1141 0537  		INC 37h
  1143 E537  		MOV A, 37h
  1145 AE36  		MOV R6, 36h
  1147 7002  		JNZ L114B
  1149 0536  		INC 36h
L114B:
  114B 14    		DEC A
  114C FF    		MOV R7, A
  114D E53A  		MOV A, 3Ah
  114F 253B  		ADD A, 3Bh
  1151 F582  		MOV DPL, A
  1153 E4    		CLR A
  1154 3539  		ADDC A, 39h
  1156 F583  		MOV DPH, A
  1158 E0    		MOVX A, @DPTR
  1159 FD    		MOV R5, A
  115A 120F73		LCALL L0F73
  115D 053B  		INC 3Bh
  115F 80D9  		SJMP L113A

L1161:
  1161 22    		RET

L1162:
  1162 A907  		MOV R1, 7h
L1164:
  1164 90E678		MOV DPTR, #0E678h
  1167 E0    		MOVX A, @DPTR
  1168 20E6F9		JB ACC.6, L1164
  116B E541  		MOV A, 41h
  116D 7025  		JNZ L1194
  116F 90E678		MOV DPTR, #0E678h
  1172 E0    		MOVX A, @DPTR
  1173 4480  		ORL A, #80h
  1175 F0    		MOVX @DPTR, A
  1176 E9    		MOV A, R1
  1177 25E0  		ADD A, ACC
  1179 4401  		ORL A, #1h
  117B 90E679		MOV DPTR, #0E679h
  117E F0    		MOVX @DPTR, A
  117F 8D3C  		MOV 3Ch, R5
  1181 AF03  		MOV R7, 3h
  1183 A907  		MOV R1, 7h
  1185 753D01		MOV 3Dh, #1h
  1188 8A3E  		MOV 3Eh, R2
  118A 893F  		MOV 3Fh, R1
  118C E4    		CLR A
  118D F540  		MOV 40h, A
  118F 754103		MOV 41h, #3h
  1192 D3    		SETB C
  1193 22    		RET

L1194:
  1194 C3    		CLR C
  1195 22    		RET

L1196:
  1196 C0E0  		PUSH ACC
  1198 B287  		CPL P0.7
  119A E509  		MOV A, 9h
  119C 1509  		DEC 9h
  119E 7002  		JNZ L11A2
  11A0 1508  		DEC 8h
L11A2:
  11A2 E509  		MOV A, 9h
  11A4 4508  		ORL A, 8h
  11A6 7015  		JNZ L11BD
  11A8 750804		MOV 8h, #4h
  11AB 75091F		MOV 9h, #1Fh
  11AE 300206		JNB 2h, L11B7
  11B1 B2A1  		CPL P2.1
  11B3 D2A0  		SETB P2.0
  11B5 8004  		SJMP L11BB

L11B7:
  11B7 B2A0  		CPL P2.0
  11B9 D2A1  		SETB P2.1
L11BB:
  11BB C202  		CLR 2h
L11BD:
  11BD 75CDF8		MOV 0CDh, #0F8h
  11C0 75CC40		MOV 0CCh, #40h
  11C3 C2CF  		CLR 0CFh
  11C5 D0E0  		POP ACC
  11C7 32    		RETI

L11C8:
  11C8 A907  		MOV R1, 7h
L11CA:
  11CA 90E678		MOV DPTR, #0E678h
  11CD E0    		MOVX A, @DPTR
  11CE 20E6F9		JB ACC.6, L11CA
  11D1 E541  		MOV A, 41h
  11D3 7023  		JNZ L11F8
  11D5 90E678		MOV DPTR, #0E678h
  11D8 E0    		MOVX A, @DPTR
  11D9 4480  		ORL A, #80h
  11DB F0    		MOVX @DPTR, A
  11DC E9    		MOV A, R1
  11DD 25E0  		ADD A, ACC
  11DF 90E679		MOV DPTR, #0E679h
  11E2 F0    		MOVX @DPTR, A
  11E3 8D3C  		MOV 3Ch, R5
  11E5 AF03  		MOV R7, 3h
  11E7 A907  		MOV R1, 7h
  11E9 753D01		MOV 3Dh, #1h
  11EC 8A3E  		MOV 3Eh, R2
  11EE 893F  		MOV 3Fh, R1
  11F0 E4    		CLR A
  11F1 F540  		MOV 40h, A
  11F3 754101		MOV 41h, #1h
  11F6 D3    		SETB C
  11F7 22    		RET

L11F8:
  11F8 C3    		CLR C
  11F9 22    		RET

L11FA:
  11FA 300609		JNB 6h, L1206
  11FD 90E680		MOV DPTR, #0E680h
L1200:
  1200 E0    		MOVX A, @DPTR
  1201 440A  		ORL A, #0Ah
  1203 F0    		MOVX @DPTR, A
  1204 8007  		SJMP L120D

L1206:
  1206 90E680		MOV DPTR, #0E680h
  1209 E0    		MOVX A, @DPTR
  120A 4408  		ORL A, #8h
  120C F0    		MOVX @DPTR, A
L120D:
  120D 7FDC  		MOV R7, #0DCh
  120F 7E05  		MOV R6, #5h
  1211 121006		LCALL L1006
  1214 90E65D		MOV DPTR, #0E65Dh
  1217 74FF  		MOV A, #0FFh
  1219 F0    		MOVX @DPTR, A
  121A 90E65F		MOV DPTR, #0E65Fh
  121D F0    		MOVX @DPTR, A
  121E 5391EF		ANL 91h, #0EFh
  1221 90E680		MOV DPTR, #0E680h
  1224 E0    		MOVX A, @DPTR
  1225 54F7  		ANL A, #0F7h
  1227 F0    		MOVX @DPTR, A
  1228 22    		RET

L1229:
  1229 90E682		MOV DPTR, #0E682h
  122C E0    		MOVX A, @DPTR
  122D 30E004		JNB ACC.0, L1234
  1230 E0    		MOVX A, @DPTR
  1231 20E60B		JB ACC.6, L123F
L1234:
  1234 90E682		MOV DPTR, #0E682h
  1237 E0    		MOVX A, @DPTR
  1238 30E119		JNB ACC.1, L1254
  123B E0    		MOVX A, @DPTR
  123C 30E715		JNB ACC.7, L1254
L123F:
  123F 90E680		MOV DPTR, #0E680h
  1242 E0    		MOVX A, @DPTR
  1243 4401  		ORL A, #1h
  1245 F0    		MOVX @DPTR, A
  1246 7F14  		MOV R7, #14h
  1248 7E00  		MOV R6, #0h
  124A 121006		LCALL L1006
  124D 90E680		MOV DPTR, #0E680h
  1250 E0    		MOVX A, @DPTR
  1251 54FE  		ANL A, #0FEh
  1253 F0    		MOVX @DPTR, A
L1254:
  1254 22    		RET

L1255:
  1255 A907  		MOV R1, 7h
  1257 AE16  		MOV R6, 16h
  1259 AF17  		MOV R7, 17h
L125B:
  125B 8F82  		MOV DPL, R7
  125D 8E83  		MOV DPH, R6
  125F A3    		INC DPTR
  1260 E0    		MOVX A, @DPTR
  1261 6403  		XRL A, #3h
  1263 7017  		JNZ L127C
  1265 AD01  		MOV R5, 1h
  1267 19    		DEC R1
  1268 ED    		MOV A, R5
  1269 7001  		JNZ L126C
  126B 22    		RET

L126C:
  126C 8F82  		MOV DPL, R7
  126E 8E83  		MOV DPH, R6
  1270 E0    		MOVX A, @DPTR
  1271 7C00  		MOV R4, #0h
  1273 2F    		ADD A, R7
  1274 FD    		MOV R5, A
  1275 EC    		MOV A, R4
  1276 3E    		ADDC A, R6
  1277 FE    		MOV R6, A
  1278 AF05  		MOV R7, 5h
  127A 80DF  		SJMP L125B

L127C:
  127C 7E00  		MOV R6, #0h
  127E 7F00  		MOV R7, #0h
  1280 22    		RET

L1281:
  1281 C0E0  		PUSH ACC
  1283 C083  		PUSH DPH
  1285 C082  		PUSH DPL
  1287 D201  		SETB 1h
  1289 5391EF		ANL 91h, #0EFh
  128C 90E65D		MOV DPTR, #0E65Dh
  128F 7401  		MOV A, #1h
  1291 F0    		MOVX @DPTR, A
  1292 D082  		POP DPL
  1294 D083  		POP DPH
  1296 D0E0  		POP ACC
  1298 32    		RETI

L1299:
  1299 C0E0  		PUSH ACC
  129B C083  		PUSH DPH
  129D C082  		PUSH DPL
  129F D204  		SETB 4h
  12A1 5391EF		ANL 91h, #0EFh
  12A4 90E65D		MOV DPTR, #0E65Dh
  12A7 7408  		MOV A, #8h
  12A9 F0    		MOVX @DPTR, A
  12AA D082  		POP DPL
  12AC D083  		POP DPH
  12AE D0E0  		POP ACC
  12B0 32    		RETI

L12B1:
  12B1 C0E0  		PUSH ACC
  12B3 C083  		PUSH DPH
  12B5 C082  		PUSH DPL
  12B7 5391EF		ANL 91h, #0EFh
  12BA 90E65D		MOV DPTR, #0E65Dh
  12BD 7404  		MOV A, #4h
  12BF F0    		MOVX @DPTR, A
  12C0 D082  		POP DPL
  12C2 D083  		POP DPH
  12C4 D0E0  		POP ACC
  12C6 32    		RETI

L12C7:
  12C7 C0E0  		PUSH ACC
  12C9 C083  		PUSH DPH
  12CB C082  		PUSH DPL
  12CD 5391EF		ANL 91h, #0EFh
  12D0 90E65D		MOV DPTR, #0E65Dh
  12D3 7402  		MOV A, #2h
  12D5 F0    		MOVX @DPTR, A
  12D6 D082  		POP DPL
  12D8 D083  		POP DPH
  12DA D0E0  		POP ACC
  12DC 32    		RETI

L12DD:
  12DD 90E740		MOV DPTR, #0E740h
  12E0 E51B  		MOV A, 1Bh
  12E2 F0    		MOVX @DPTR, A
  12E3 E4    		CLR A
  12E4 90E68A		MOV DPTR, #0E68Ah
  12E7 F0    		MOVX @DPTR, A
  12E8 90E68B		MOV DPTR, #0E68Bh
  12EB 04    		INC A
  12EC F0    		MOVX @DPTR, A
  12ED D3    		SETB C
  12EE 22    		RET

L12EF:
  12EF 90E740		MOV DPTR, #0E740h
  12F2 E518  		MOV A, 18h
  12F4 F0    		MOVX @DPTR, A
  12F5 E4    		CLR A
  12F6 90E68A		MOV DPTR, #0E68Ah
  12F9 F0    		MOVX @DPTR, A
  12FA 90E68B		MOV DPTR, #0E68Bh
  12FD 04    		INC A
  12FE F0    		MOVX @DPTR, A
  12FF D3    		SETB C
  1300 22    		RET

L1301:
  1301 90E6BA		MOV DPTR, #0E6BAh
  1304 E0    		MOVX A, @DPTR
  1305 F518  		MOV 18h, A
  1307 D3    		SETB C
  1308 22    		RET

L1309:
  1309 E4    		CLR A
  130A F541  		MOV 41h, A
  130C D2E9  		SETB 0E9h
  130E D2AF  		SETB EA
  1310 22    		RET

L1311:
  1311 32    		RETI

L1312:
  1312 32    		RETI

L1313:
  1313 32    		RETI

L1314:
  1314 32    		RETI

L1315:
  1315 32    		RETI

L1316:
  1316 32    		RETI

L1317:
  1317 32    		RETI

L1318:
  1318 32    		RETI

L1319:
  1319 32    		RETI

L131A:
  131A 32    		RETI

L131B:
  131B 32    		RETI

L131C:
  131C 32    		RETI

L131D:
  131D 32    		RETI

L131E:
  131E 32    		RETI

L131F:
  131F 32    		RETI

L1320:
  1320 32    		RETI

L1321:
  1321 32    		RETI

L1322:
  1322 32    		RETI

CSEG AT 7F92h
  7F92 01    		DB 001h 
CSEG AT E600h
  E600 01    		DB 001h 
END
